(lp1
cnumpy.core.multiarray
scalar
p2
(cnumpy
dtype
p3
(S'f8'
I0
I1
tRp4
(I3
S'<'
NNNI-1
I-1
I0
tbS'N\x12\xc3n1\\.@'
tRp5
ag2
(g4
S'r\x97tc\xef].@'
tRp6
ag2
(g4
S'2\x98u/\xf7].@'
tRp7
ag2
(g4
S'&3D\xd0&^.@'
tRp8
ag2
(g4
S'L\x10kix^.@'
tRp9
ag2
(g4
S'8\xa0\xd5|\xa5].@'
tRp10
ag2
(g4
S'\xb2\x97\x1f\x1aU^.@'
tRp11
a.