(lp1
cnumpy.core.multiarray
scalar
p2
(cnumpy
dtype
p3
(S'f8'
I0
I1
tRp4
(I3
S'<'
NNNI-1
I-1
I0
tbS'\xc3l;\x7fi\xca\xff?'
tRp5
ag2
(g4
S'AVuD[+@?'
tRp6
ag2
(g4
S'AVuD[+@?'
tRp7
ag2
(g4
S'AVuD[+@?'
tRp8
ag2
(g4
S'AVuD[+@?'
tRp9
ag2
(g4
S'j5G\xb0\x9e\x81!@'
tRp10
ag2
(g4
S'\xb9J\xce(T\xb0\x15@'
tRp11
ag2
(g4
S'AVuD[+@?'
tRp12
ag2
(g4
S'\xb9@V\xa8\xbd\xa7\x15@'
tRp13
a.