(lp1
ccopy_reg
_reconstructor
p2
(ckeras.layers.convolutional
Conv2D
p3
c__builtin__
object
p4
NtRp5
(dp6
S'outbound_nodes'
p7
(lp8
sS'supports_masking'
p9
I00
sS'_non_trainable_weights'
p10
(lp11
sS'rank'
p12
I2
sS'filters'
p13
I32
sS'use_bias'
p14
I00
sS'inbound_nodes'
p15
(lp16
sS'_initial_weights'
p17
NsS'_trainable_weights'
p18
(lp19
sS'bias_regularizer'
p20
NsS'_per_input_losses'
p21
(dp22
sS'_per_input_updates'
p23
(dp24
sS'_losses'
p25
(lp26
sS'bias_initializer'
p27
g2
(ckeras.initializers
Zeros
p28
g4
NtRp29
sS'activity_regularizer'
p30
NsS'trainable'
p31
I01
sS'kernel_initializer'
p32
g2
(ckeras.initializers
VarianceScaling
p33
g4
NtRp34
(dp35
S'distribution'
p36
S'uniform'
p37
sS'scale'
p38
F1
sS'seed'
p39
NsS'mode'
p40
S'fan_avg'
p41
sbsS'kernel_constraint'
p42
NsS'activation'
p43
ckeras.activations
linear
p44
sS'_built'
p45
I00
sS'padding'
p46
S'valid'
p47
sS'strides'
p48
(I2
I2
tp49
sS'_constraints'
p50
(dp51
sS'name'
p52
S'conv2d_1'
p53
sS'bias_constraint'
p54
NsS'input_spec'
p55
g2
(ckeras.engine.topology
InputSpec
p56
g4
NtRp57
(dp58
S'ndim'
p59
I4
sS'max_ndim'
p60
NsS'dtype'
p61
NsS'axes'
p62
(dp63
sS'shape'
p64
NsS'min_ndim'
p65
NsbsS'data_format'
p66
S'channels_last'
p67
sS'dilation_rate'
p68
(I1
I1
tp69
sS'kernel_regularizer'
p70
NsS'_updates'
p71
(lp72
sS'kernel_size'
p73
(I3
I3
tp74
sbag2
(ckeras.layers.normalization
BatchNormalization
p75
g4
NtRp76
(dp77
g7
(lp78
sg9
I01
sg10
(lp79
sg15
(lp80
sS'axis'
p81
I3
sg18
(lp82
sS'moving_mean_initializer'
p83
g2
(g28
g4
NtRp84
sg21
(dp85
sS'moving_variance_initializer'
p86
g2
(ckeras.initializers
Ones
p87
g4
NtRp88
sg23
(dp89
sg25
(lp90
sS'gamma_constraint'
p91
Nsg17
NsS'momentum'
p92
F0.98999999999999999
sS'beta_constraint'
p93
NsS'gamma_initializer'
p94
g2
(g87
g4
NtRp95
sg31
I01
sS'epsilon'
p96
F0.001
sS'beta_initializer'
p97
g2
(g28
g4
NtRp98
sg38
I00
sg45
I00
sg50
(dp99
sS'center'
p100
I01
sS'beta_regularizer'
p101
Nsg52
S'batch_normalization_1'
p102
sg55
Nsg71
(lp103
sS'gamma_regularizer'
p104
Nsbag2
(ckeras.layers.core
Activation
p105
g4
NtRp106
(dp107
g18
(lp108
sg7
(lp109
sg52
S'activation_1'
p110
sg9
I01
sg43
ckeras.activations
relu
p111
sg10
(lp112
sg55
Nsg21
(dp113
sg23
(dp114
sg25
(lp115
sg71
(lp116
sg31
I01
sg45
I00
sg15
(lp117
sg50
(dp118
sg17
Nsbag2
(g3
g4
NtRp119
(dp120
g7
(lp121
sg9
I00
sg10
(lp122
sg12
I2
sg13
I32
sg14
I00
sg15
(lp123
sg17
Nsg18
(lp124
sg20
Nsg21
(dp125
sg23
(dp126
sg25
(lp127
sg27
g2
(g28
g4
NtRp128
sg30
Nsg31
I01
sg32
g2
(g33
g4
NtRp129
(dp130
g36
S'uniform'
p131
sg38
F1
sg39
Nsg40
S'fan_avg'
p132
sbsg42
Nsg43
g44
sg45
I00
sg46
S'valid'
p133
sg48
(I1
I1
tp134
sg50
(dp135
sg52
S'conv2d_2'
p136
sg54
Nsg55
g2
(g56
g4
NtRp137
(dp138
g59
I4
sg60
Nsg61
Nsg62
(dp139
sg64
Nsg65
Nsbsg66
S'channels_last'
p140
sg68
g69
sg70
Nsg71
(lp141
sg73
(I3
I3
tp142
sbag2
(g75
g4
NtRp143
(dp144
g7
(lp145
sg9
I01
sg10
(lp146
sg15
(lp147
sg81
I3
sg18
(lp148
sg83
g2
(g28
g4
NtRp149
sg21
(dp150
sg86
g2
(g87
g4
NtRp151
sg23
(dp152
sg25
(lp153
sg91
Nsg17
Nsg92
F0.98999999999999999
sg93
Nsg94
g2
(g87
g4
NtRp154
sg31
I01
sg96
F0.001
sg97
g2
(g28
g4
NtRp155
sg38
I00
sg45
I00
sg50
(dp156
sg100
I01
sg101
Nsg52
S'batch_normalization_2'
p157
sg55
Nsg71
(lp158
sg104
Nsbag2
(g105
g4
NtRp159
(dp160
g18
(lp161
sg7
(lp162
sg52
S'activation_2'
p163
sg9
I01
sg43
g111
sg10
(lp164
sg55
Nsg21
(dp165
sg23
(dp166
sg25
(lp167
sg71
(lp168
sg31
I01
sg45
I00
sg15
(lp169
sg50
(dp170
sg17
Nsbag2
(g3
g4
NtRp171
(dp172
g7
(lp173
sg9
I00
sg10
(lp174
sg12
I2
sg13
I64
sg14
I00
sg15
(lp175
sg17
Nsg18
(lp176
sg20
Nsg21
(dp177
sg23
(dp178
sg25
(lp179
sg27
g2
(g28
g4
NtRp180
sg30
Nsg31
I01
sg32
g2
(g33
g4
NtRp181
(dp182
g36
S'uniform'
p183
sg38
F1
sg39
Nsg40
S'fan_avg'
p184
sbsg42
Nsg43
g44
sg45
I00
sg46
S'same'
p185
sg48
g134
sg50
(dp186
sg52
S'conv2d_3'
p187
sg54
Nsg55
g2
(g56
g4
NtRp188
(dp189
g59
I4
sg60
Nsg61
Nsg62
(dp190
sg64
Nsg65
Nsbsg66
S'channels_last'
p191
sg68
g69
sg70
Nsg71
(lp192
sg73
(I3
I3
tp193
sbag2
(g75
g4
NtRp194
(dp195
g7
(lp196
sg9
I01
sg10
(lp197
sg15
(lp198
sg81
I3
sg18
(lp199
sg83
g2
(g28
g4
NtRp200
sg21
(dp201
sg86
g2
(g87
g4
NtRp202
sg23
(dp203
sg25
(lp204
sg91
Nsg17
Nsg92
F0.98999999999999999
sg93
Nsg94
g2
(g87
g4
NtRp205
sg31
I01
sg96
F0.001
sg97
g2
(g28
g4
NtRp206
sg38
I00
sg45
I00
sg50
(dp207
sg100
I01
sg101
Nsg52
S'batch_normalization_3'
p208
sg55
Nsg71
(lp209
sg104
Nsbag2
(g105
g4
NtRp210
(dp211
g18
(lp212
sg7
(lp213
sg52
S'activation_3'
p214
sg9
I01
sg43
g111
sg10
(lp215
sg55
Nsg21
(dp216
sg23
(dp217
sg25
(lp218
sg71
(lp219
sg31
I01
sg45
I00
sg15
(lp220
sg50
(dp221
sg17
Nsbag2
(ckeras.layers.pooling
MaxPooling2D
p222
g4
NtRp223
(dp224
g46
S'valid'
p225
sg18
(lp226
sg7
(lp227
sg52
S'max_pooling2d_1'
p228
sg48
(I2
I2
tp229
sg9
I00
sg10
(lp230
sg55
g2
(g56
g4
NtRp231
(dp232
g59
I4
sg60
Nsg61
Nsg62
(dp233
sg64
Nsg65
Nsbsg66
S'channels_last'
p234
sg21
(dp235
sg23
(dp236
sg25
(lp237
sg71
(lp238
sS'pool_size'
p239
(I3
I3
tp240
sg31
I01
sg45
I00
sg15
(lp241
sg50
(dp242
sg17
Nsbag2
(g3
g4
NtRp243
(dp244
g7
(lp245
sg9
I00
sg10
(lp246
sg12
I2
sg13
I80
sg14
I00
sg15
(lp247
sg17
Nsg18
(lp248
sg20
Nsg21
(dp249
sg23
(dp250
sg25
(lp251
sg27
g2
(g28
g4
NtRp252
sg30
Nsg31
I01
sg32
g2
(g33
g4
NtRp253
(dp254
g36
S'uniform'
p255
sg38
F1
sg39
Nsg40
S'fan_avg'
p256
sbsg42
Nsg43
g44
sg45
I00
sg46
S'valid'
p257
sg48
g134
sg50
(dp258
sg52
S'conv2d_4'
p259
sg54
Nsg55
g2
(g56
g4
NtRp260
(dp261
g59
I4
sg60
Nsg61
Nsg62
(dp262
sg64
Nsg65
Nsbsg66
S'channels_last'
p263
sg68
g69
sg70
Nsg71
(lp264
sg73
(I1
I1
tp265
sbag2
(g75
g4
NtRp266
(dp267
g7
(lp268
sg9
I01
sg10
(lp269
sg15
(lp270
sg81
I3
sg18
(lp271
sg83
g2
(g28
g4
NtRp272
sg21
(dp273
sg86
g2
(g87
g4
NtRp274
sg23
(dp275
sg25
(lp276
sg91
Nsg17
Nsg92
F0.98999999999999999
sg93
Nsg94
g2
(g87
g4
NtRp277
sg31
I01
sg96
F0.001
sg97
g2
(g28
g4
NtRp278
sg38
I00
sg45
I00
sg50
(dp279
sg100
I01
sg101
Nsg52
S'batch_normalization_4'
p280
sg55
Nsg71
(lp281
sg104
Nsbag2
(g105
g4
NtRp282
(dp283
g18
(lp284
sg7
(lp285
sg52
S'activation_4'
p286
sg9
I01
sg43
g111
sg10
(lp287
sg55
Nsg21
(dp288
sg23
(dp289
sg25
(lp290
sg71
(lp291
sg31
I01
sg45
I00
sg15
(lp292
sg50
(dp293
sg17
Nsbag2
(g3
g4
NtRp294
(dp295
g7
(lp296
sg9
I00
sg10
(lp297
sg12
I2
sg13
I192
sg14
I00
sg15
(lp298
sg17
Nsg18
(lp299
sg20
Nsg21
(dp300
sg23
(dp301
sg25
(lp302
sg27
g2
(g28
g4
NtRp303
sg30
Nsg31
I01
sg32
g2
(g33
g4
NtRp304
(dp305
g36
S'uniform'
p306
sg38
F1
sg39
Nsg40
S'fan_avg'
p307
sbsg42
Nsg43
g44
sg45
I00
sg46
S'valid'
p308
sg48
g134
sg50
(dp309
sg52
S'conv2d_5'
p310
sg54
Nsg55
g2
(g56
g4
NtRp311
(dp312
g59
I4
sg60
Nsg61
Nsg62
(dp313
sg64
Nsg65
Nsbsg66
S'channels_last'
p314
sg68
g69
sg70
Nsg71
(lp315
sg73
(I3
I3
tp316
sbag2
(g75
g4
NtRp317
(dp318
g7
(lp319
sg9
I01
sg10
(lp320
sg15
(lp321
sg81
I3
sg18
(lp322
sg83
g2
(g28
g4
NtRp323
sg21
(dp324
sg86
g2
(g87
g4
NtRp325
sg23
(dp326
sg25
(lp327
sg91
Nsg17
Nsg92
F0.98999999999999999
sg93
Nsg94
g2
(g87
g4
NtRp328
sg31
I01
sg96
F0.001
sg97
g2
(g28
g4
NtRp329
sg38
I00
sg45
I00
sg50
(dp330
sg100
I01
sg101
Nsg52
S'batch_normalization_5'
p331
sg55
Nsg71
(lp332
sg104
Nsbag2
(g105
g4
NtRp333
(dp334
g18
(lp335
sg7
(lp336
sg52
S'activation_5'
p337
sg9
I01
sg43
g111
sg10
(lp338
sg55
Nsg21
(dp339
sg23
(dp340
sg25
(lp341
sg71
(lp342
sg31
I01
sg45
I00
sg15
(lp343
sg50
(dp344
sg17
Nsbag2
(g222
g4
NtRp345
(dp346
g46
S'valid'
p347
sg18
(lp348
sg7
(lp349
sg52
S'max_pooling2d_2'
p350
sg48
(I2
I2
tp351
sg9
I00
sg10
(lp352
sg55
g2
(g56
g4
NtRp353
(dp354
g59
I4
sg60
Nsg61
Nsg62
(dp355
sg64
Nsg65
Nsbsg66
S'channels_last'
p356
sg21
(dp357
sg23
(dp358
sg25
(lp359
sg71
(lp360
sg239
(I3
I3
tp361
sg31
I01
sg45
I00
sg15
(lp362
sg50
(dp363
sg17
Nsbag2
(g3
g4
NtRp364
(dp365
g7
(lp366
sg9
I00
sg10
(lp367
sg12
I2
sg13
I64
sg14
I00
sg15
(lp368
sg17
Nsg18
(lp369
sg20
Nsg21
(dp370
sg23
(dp371
sg25
(lp372
sg27
g2
(g28
g4
NtRp373
sg30
Nsg31
I01
sg32
g2
(g33
g4
NtRp374
(dp375
g36
S'uniform'
p376
sg38
F1
sg39
Nsg40
S'fan_avg'
p377
sbsg42
Nsg43
g44
sg45
I00
sg46
S'same'
p378
sg48
g134
sg50
(dp379
sg52
S'conv2d_6'
p380
sg54
Nsg55
g2
(g56
g4
NtRp381
(dp382
g59
I4
sg60
Nsg61
Nsg62
(dp383
sg64
Nsg65
Nsbsg66
S'channels_last'
p384
sg68
g69
sg70
Nsg71
(lp385
sg73
(I1
I1
tp386
sbag2
(g75
g4
NtRp387
(dp388
g7
(lp389
sg9
I01
sg10
(lp390
sg15
(lp391
sg81
I3
sg18
(lp392
sg83
g2
(g28
g4
NtRp393
sg21
(dp394
sg86
g2
(g87
g4
NtRp395
sg23
(dp396
sg25
(lp397
sg91
Nsg17
Nsg92
F0.98999999999999999
sg93
Nsg94
g2
(g87
g4
NtRp398
sg31
I01
sg96
F0.001
sg97
g2
(g28
g4
NtRp399
sg38
I00
sg45
I00
sg50
(dp400
sg100
I01
sg101
Nsg52
S'batch_normalization_6'
p401
sg55
Nsg71
(lp402
sg104
Nsbag2
(g105
g4
NtRp403
(dp404
g18
(lp405
sg7
(lp406
sg52
S'activation_6'
p407
sg9
I01
sg43
g111
sg10
(lp408
sg55
Nsg21
(dp409
sg23
(dp410
sg25
(lp411
sg71
(lp412
sg31
I01
sg45
I00
sg15
(lp413
sg50
(dp414
sg17
Nsbag2
(g3
g4
NtRp415
(dp416
g7
(lp417
sg9
I00
sg10
(lp418
sg12
I2
sg13
I48
sg14
I00
sg15
(lp419
sg17
Nsg18
(lp420
sg20
Nsg21
(dp421
sg23
(dp422
sg25
(lp423
sg27
g2
(g28
g4
NtRp424
sg30
Nsg31
I01
sg32
g2
(g33
g4
NtRp425
(dp426
g36
S'uniform'
p427
sg38
F1
sg39
Nsg40
S'fan_avg'
p428
sbsg42
Nsg43
g44
sg45
I00
sg46
S'same'
p429
sg48
g134
sg50
(dp430
sg52
S'conv2d_7'
p431
sg54
Nsg55
g2
(g56
g4
NtRp432
(dp433
g59
I4
sg60
Nsg61
Nsg62
(dp434
sg64
Nsg65
Nsbsg66
S'channels_last'
p435
sg68
g69
sg70
Nsg71
(lp436
sg73
(I1
I1
tp437
sbag2
(g75
g4
NtRp438
(dp439
g7
(lp440
sg9
I01
sg10
(lp441
sg15
(lp442
sg81
I3
sg18
(lp443
sg83
g2
(g28
g4
NtRp444
sg21
(dp445
sg86
g2
(g87
g4
NtRp446
sg23
(dp447
sg25
(lp448
sg91
Nsg17
Nsg92
F0.98999999999999999
sg93
Nsg94
g2
(g87
g4
NtRp449
sg31
I01
sg96
F0.001
sg97
g2
(g28
g4
NtRp450
sg38
I00
sg45
I00
sg50
(dp451
sg100
I01
sg101
Nsg52
S'batch_normalization_7'
p452
sg55
Nsg71
(lp453
sg104
Nsbag2
(g105
g4
NtRp454
(dp455
g18
(lp456
sg7
(lp457
sg52
S'activation_7'
p458
sg9
I01
sg43
g111
sg10
(lp459
sg55
Nsg21
(dp460
sg23
(dp461
sg25
(lp462
sg71
(lp463
sg31
I01
sg45
I00
sg15
(lp464
sg50
(dp465
sg17
Nsbag2
(g3
g4
NtRp466
(dp467
g7
(lp468
sg9
I00
sg10
(lp469
sg12
I2
sg13
I64
sg14
I00
sg15
(lp470
sg17
Nsg18
(lp471
sg20
Nsg21
(dp472
sg23
(dp473
sg25
(lp474
sg27
g2
(g28
g4
NtRp475
sg30
Nsg31
I01
sg32
g2
(g33
g4
NtRp476
(dp477
g36
S'uniform'
p478
sg38
F1
sg39
Nsg40
S'fan_avg'
p479
sbsg42
Nsg43
g44
sg45
I00
sg46
S'same'
p480
sg48
g134
sg50
(dp481
sg52
S'conv2d_8'
p482
sg54
Nsg55
g2
(g56
g4
NtRp483
(dp484
g59
I4
sg60
Nsg61
Nsg62
(dp485
sg64
Nsg65
Nsbsg66
S'channels_last'
p486
sg68
g69
sg70
Nsg71
(lp487
sg73
(I5
I5
tp488
sbag2
(g75
g4
NtRp489
(dp490
g7
(lp491
sg9
I01
sg10
(lp492
sg15
(lp493
sg81
I3
sg18
(lp494
sg83
g2
(g28
g4
NtRp495
sg21
(dp496
sg86
g2
(g87
g4
NtRp497
sg23
(dp498
sg25
(lp499
sg91
Nsg17
Nsg92
F0.98999999999999999
sg93
Nsg94
g2
(g87
g4
NtRp500
sg31
I01
sg96
F0.001
sg97
g2
(g28
g4
NtRp501
sg38
I00
sg45
I00
sg50
(dp502
sg100
I01
sg101
Nsg52
S'batch_normalization_8'
p503
sg55
Nsg71
(lp504
sg104
Nsbag2
(g105
g4
NtRp505
(dp506
g18
(lp507
sg7
(lp508
sg52
S'activation_8'
p509
sg9
I01
sg43
g111
sg10
(lp510
sg55
Nsg21
(dp511
sg23
(dp512
sg25
(lp513
sg71
(lp514
sg31
I01
sg45
I00
sg15
(lp515
sg50
(dp516
sg17
Nsbag2
(g3
g4
NtRp517
(dp518
g7
(lp519
sg9
I00
sg10
(lp520
sg12
I2
sg13
I64
sg14
I00
sg15
(lp521
sg17
Nsg18
(lp522
sg20
Nsg21
(dp523
sg23
(dp524
sg25
(lp525
sg27
g2
(g28
g4
NtRp526
sg30
Nsg31
I01
sg32
g2
(g33
g4
NtRp527
(dp528
g36
S'uniform'
p529
sg38
F1
sg39
Nsg40
S'fan_avg'
p530
sbsg42
Nsg43
g44
sg45
I00
sg46
S'same'
p531
sg48
g134
sg50
(dp532
sg52
S'conv2d_9'
p533
sg54
Nsg55
g2
(g56
g4
NtRp534
(dp535
g59
I4
sg60
Nsg61
Nsg62
(dp536
sg64
Nsg65
Nsbsg66
S'channels_last'
p537
sg68
g69
sg70
Nsg71
(lp538
sg73
(I1
I1
tp539
sbag2
(g75
g4
NtRp540
(dp541
g7
(lp542
sg9
I01
sg10
(lp543
sg15
(lp544
sg81
I3
sg18
(lp545
sg83
g2
(g28
g4
NtRp546
sg21
(dp547
sg86
g2
(g87
g4
NtRp548
sg23
(dp549
sg25
(lp550
sg91
Nsg17
Nsg92
F0.98999999999999999
sg93
Nsg94
g2
(g87
g4
NtRp551
sg31
I01
sg96
F0.001
sg97
g2
(g28
g4
NtRp552
sg38
I00
sg45
I00
sg50
(dp553
sg100
I01
sg101
Nsg52
S'batch_normalization_9'
p554
sg55
Nsg71
(lp555
sg104
Nsbag2
(g105
g4
NtRp556
(dp557
g18
(lp558
sg7
(lp559
sg52
S'activation_9'
p560
sg9
I01
sg43
g111
sg10
(lp561
sg55
Nsg21
(dp562
sg23
(dp563
sg25
(lp564
sg71
(lp565
sg31
I01
sg45
I00
sg15
(lp566
sg50
(dp567
sg17
Nsbag2
(g3
g4
NtRp568
(dp569
g7
(lp570
sg9
I00
sg10
(lp571
sg12
I2
sg13
I96
sg14
I00
sg15
(lp572
sg17
Nsg18
(lp573
sg20
Nsg21
(dp574
sg23
(dp575
sg25
(lp576
sg27
g2
(g28
g4
NtRp577
sg30
Nsg31
I01
sg32
g2
(g33
g4
NtRp578
(dp579
g36
S'uniform'
p580
sg38
F1
sg39
Nsg40
S'fan_avg'
p581
sbsg42
Nsg43
g44
sg45
I00
sg46
S'same'
p582
sg48
g134
sg50
(dp583
sg52
S'conv2d_10'
p584
sg54
Nsg55
g2
(g56
g4
NtRp585
(dp586
g59
I4
sg60
Nsg61
Nsg62
(dp587
sg64
Nsg65
Nsbsg66
S'channels_last'
p588
sg68
g69
sg70
Nsg71
(lp589
sg73
(I3
I3
tp590
sbag2
(g75
g4
NtRp591
(dp592
g7
(lp593
sg9
I01
sg10
(lp594
sg15
(lp595
sg81
I3
sg18
(lp596
sg83
g2
(g28
g4
NtRp597
sg21
(dp598
sg86
g2
(g87
g4
NtRp599
sg23
(dp600
sg25
(lp601
sg91
Nsg17
Nsg92
F0.98999999999999999
sg93
Nsg94
g2
(g87
g4
NtRp602
sg31
I01
sg96
F0.001
sg97
g2
(g28
g4
NtRp603
sg38
I00
sg45
I00
sg50
(dp604
sg100
I01
sg101
Nsg52
S'batch_normalization_10'
p605
sg55
Nsg71
(lp606
sg104
Nsbag2
(g105
g4
NtRp607
(dp608
g18
(lp609
sg7
(lp610
sg52
S'activation_10'
p611
sg9
I01
sg43
g111
sg10
(lp612
sg55
Nsg21
(dp613
sg23
(dp614
sg25
(lp615
sg71
(lp616
sg31
I01
sg45
I00
sg15
(lp617
sg50
(dp618
sg17
Nsbag2
(g3
g4
NtRp619
(dp620
g7
(lp621
sg9
I00
sg10
(lp622
sg12
I2
sg13
I96
sg14
I00
sg15
(lp623
sg17
Nsg18
(lp624
sg20
Nsg21
(dp625
sg23
(dp626
sg25
(lp627
sg27
g2
(g28
g4
NtRp628
sg30
Nsg31
I01
sg32
g2
(g33
g4
NtRp629
(dp630
g36
S'uniform'
p631
sg38
F1
sg39
Nsg40
S'fan_avg'
p632
sbsg42
Nsg43
g44
sg45
I00
sg46
S'same'
p633
sg48
g134
sg50
(dp634
sg52
S'conv2d_11'
p635
sg54
Nsg55
g2
(g56
g4
NtRp636
(dp637
g59
I4
sg60
Nsg61
Nsg62
(dp638
sg64
Nsg65
Nsbsg66
S'channels_last'
p639
sg68
g69
sg70
Nsg71
(lp640
sg73
(I3
I3
tp641
sbag2
(g75
g4
NtRp642
(dp643
g7
(lp644
sg9
I01
sg10
(lp645
sg15
(lp646
sg81
I3
sg18
(lp647
sg83
g2
(g28
g4
NtRp648
sg21
(dp649
sg86
g2
(g87
g4
NtRp650
sg23
(dp651
sg25
(lp652
sg91
Nsg17
Nsg92
F0.98999999999999999
sg93
Nsg94
g2
(g87
g4
NtRp653
sg31
I01
sg96
F0.001
sg97
g2
(g28
g4
NtRp654
sg38
I00
sg45
I00
sg50
(dp655
sg100
I01
sg101
Nsg52
S'batch_normalization_11'
p656
sg55
Nsg71
(lp657
sg104
Nsbag2
(g105
g4
NtRp658
(dp659
g18
(lp660
sg7
(lp661
sg52
S'activation_11'
p662
sg9
I01
sg43
g111
sg10
(lp663
sg55
Nsg21
(dp664
sg23
(dp665
sg25
(lp666
sg71
(lp667
sg31
I01
sg45
I00
sg15
(lp668
sg50
(dp669
sg17
Nsbag2
(ckeras.layers.pooling
AveragePooling2D
p670
g4
NtRp671
(dp672
g46
S'same'
p673
sg18
(lp674
sg7
(lp675
sg52
S'average_pooling2d_1'
p676
sg48
(I1
I1
tp677
sg9
I00
sg10
(lp678
sg55
g2
(g56
g4
NtRp679
(dp680
g59
I4
sg60
Nsg61
Nsg62
(dp681
sg64
Nsg65
Nsbsg66
S'channels_last'
p682
sg21
(dp683
sg23
(dp684
sg25
(lp685
sg71
(lp686
sg239
(I3
I3
tp687
sg31
I01
sg45
I00
sg15
(lp688
sg50
(dp689
sg17
Nsbag2
(g3
g4
NtRp690
(dp691
g7
(lp692
sg9
I00
sg10
(lp693
sg12
I2
sg13
I32
sg14
I00
sg15
(lp694
sg17
Nsg18
(lp695
sg20
Nsg21
(dp696
sg23
(dp697
sg25
(lp698
sg27
g2
(g28
g4
NtRp699
sg30
Nsg31
I01
sg32
g2
(g33
g4
NtRp700
(dp701
g36
S'uniform'
p702
sg38
F1
sg39
Nsg40
S'fan_avg'
p703
sbsg42
Nsg43
g44
sg45
I00
sg46
S'same'
p704
sg48
g134
sg50
(dp705
sg52
S'conv2d_12'
p706
sg54
Nsg55
g2
(g56
g4
NtRp707
(dp708
g59
I4
sg60
Nsg61
Nsg62
(dp709
sg64
Nsg65
Nsbsg66
S'channels_last'
p710
sg68
g69
sg70
Nsg71
(lp711
sg73
(I1
I1
tp712
sbag2
(g75
g4
NtRp713
(dp714
g7
(lp715
sg9
I01
sg10
(lp716
sg15
(lp717
sg81
I3
sg18
(lp718
sg83
g2
(g28
g4
NtRp719
sg21
(dp720
sg86
g2
(g87
g4
NtRp721
sg23
(dp722
sg25
(lp723
sg91
Nsg17
Nsg92
F0.98999999999999999
sg93
Nsg94
g2
(g87
g4
NtRp724
sg31
I01
sg96
F0.001
sg97
g2
(g28
g4
NtRp725
sg38
I00
sg45
I00
sg50
(dp726
sg100
I01
sg101
Nsg52
S'batch_normalization_12'
p727
sg55
Nsg71
(lp728
sg104
Nsbag2
(g105
g4
NtRp729
(dp730
g18
(lp731
sg7
(lp732
sg52
S'activation_12'
p733
sg9
I01
sg43
g111
sg10
(lp734
sg55
Nsg21
(dp735
sg23
(dp736
sg25
(lp737
sg71
(lp738
sg31
I01
sg45
I00
sg15
(lp739
sg50
(dp740
sg17
Nsbag2
(g3
g4
NtRp741
(dp742
g7
(lp743
sg9
I00
sg10
(lp744
sg12
I2
sg13
I64
sg14
I00
sg15
(lp745
sg17
Nsg18
(lp746
sg20
Nsg21
(dp747
sg23
(dp748
sg25
(lp749
sg27
g2
(g28
g4
NtRp750
sg30
Nsg31
I01
sg32
g2
(g33
g4
NtRp751
(dp752
g36
S'uniform'
p753
sg38
F1
sg39
Nsg40
S'fan_avg'
p754
sbsg42
Nsg43
g44
sg45
I00
sg46
S'same'
p755
sg48
g134
sg50
(dp756
sg52
S'conv2d_13'
p757
sg54
Nsg55
g2
(g56
g4
NtRp758
(dp759
g59
I4
sg60
Nsg61
Nsg62
(dp760
sg64
Nsg65
Nsbsg66
S'channels_last'
p761
sg68
g69
sg70
Nsg71
(lp762
sg73
(I1
I1
tp763
sbag2
(g75
g4
NtRp764
(dp765
g7
(lp766
sg9
I01
sg10
(lp767
sg15
(lp768
sg81
I3
sg18
(lp769
sg83
g2
(g28
g4
NtRp770
sg21
(dp771
sg86
g2
(g87
g4
NtRp772
sg23
(dp773
sg25
(lp774
sg91
Nsg17
Nsg92
F0.98999999999999999
sg93
Nsg94
g2
(g87
g4
NtRp775
sg31
I01
sg96
F0.001
sg97
g2
(g28
g4
NtRp776
sg38
I00
sg45
I00
sg50
(dp777
sg100
I01
sg101
Nsg52
S'batch_normalization_13'
p778
sg55
Nsg71
(lp779
sg104
Nsbag2
(g105
g4
NtRp780
(dp781
g18
(lp782
sg7
(lp783
sg52
S'activation_13'
p784
sg9
I01
sg43
g111
sg10
(lp785
sg55
Nsg21
(dp786
sg23
(dp787
sg25
(lp788
sg71
(lp789
sg31
I01
sg45
I00
sg15
(lp790
sg50
(dp791
sg17
Nsbag2
(g3
g4
NtRp792
(dp793
g7
(lp794
sg9
I00
sg10
(lp795
sg12
I2
sg13
I48
sg14
I00
sg15
(lp796
sg17
Nsg18
(lp797
sg20
Nsg21
(dp798
sg23
(dp799
sg25
(lp800
sg27
g2
(g28
g4
NtRp801
sg30
Nsg31
I01
sg32
g2
(g33
g4
NtRp802
(dp803
g36
S'uniform'
p804
sg38
F1
sg39
Nsg40
S'fan_avg'
p805
sbsg42
Nsg43
g44
sg45
I00
sg46
S'same'
p806
sg48
g134
sg50
(dp807
sg52
S'conv2d_14'
p808
sg54
Nsg55
g2
(g56
g4
NtRp809
(dp810
g59
I4
sg60
Nsg61
Nsg62
(dp811
sg64
Nsg65
Nsbsg66
S'channels_last'
p812
sg68
g69
sg70
Nsg71
(lp813
sg73
(I1
I1
tp814
sbag2
(g75
g4
NtRp815
(dp816
g7
(lp817
sg9
I01
sg10
(lp818
sg15
(lp819
sg81
I3
sg18
(lp820
sg83
g2
(g28
g4
NtRp821
sg21
(dp822
sg86
g2
(g87
g4
NtRp823
sg23
(dp824
sg25
(lp825
sg91
Nsg17
Nsg92
F0.98999999999999999
sg93
Nsg94
g2
(g87
g4
NtRp826
sg31
I01
sg96
F0.001
sg97
g2
(g28
g4
NtRp827
sg38
I00
sg45
I00
sg50
(dp828
sg100
I01
sg101
Nsg52
S'batch_normalization_14'
p829
sg55
Nsg71
(lp830
sg104
Nsbag2
(g105
g4
NtRp831
(dp832
g18
(lp833
sg7
(lp834
sg52
S'activation_14'
p835
sg9
I01
sg43
g111
sg10
(lp836
sg55
Nsg21
(dp837
sg23
(dp838
sg25
(lp839
sg71
(lp840
sg31
I01
sg45
I00
sg15
(lp841
sg50
(dp842
sg17
Nsbag2
(g3
g4
NtRp843
(dp844
g7
(lp845
sg9
I00
sg10
(lp846
sg12
I2
sg13
I64
sg14
I00
sg15
(lp847
sg17
Nsg18
(lp848
sg20
Nsg21
(dp849
sg23
(dp850
sg25
(lp851
sg27
g2
(g28
g4
NtRp852
sg30
Nsg31
I01
sg32
g2
(g33
g4
NtRp853
(dp854
g36
S'uniform'
p855
sg38
F1
sg39
Nsg40
S'fan_avg'
p856
sbsg42
Nsg43
g44
sg45
I00
sg46
S'same'
p857
sg48
g134
sg50
(dp858
sg52
S'conv2d_15'
p859
sg54
Nsg55
g2
(g56
g4
NtRp860
(dp861
g59
I4
sg60
Nsg61
Nsg62
(dp862
sg64
Nsg65
Nsbsg66
S'channels_last'
p863
sg68
g69
sg70
Nsg71
(lp864
sg73
(I5
I5
tp865
sbag2
(g75
g4
NtRp866
(dp867
g7
(lp868
sg9
I01
sg10
(lp869
sg15
(lp870
sg81
I3
sg18
(lp871
sg83
g2
(g28
g4
NtRp872
sg21
(dp873
sg86
g2
(g87
g4
NtRp874
sg23
(dp875
sg25
(lp876
sg91
Nsg17
Nsg92
F0.98999999999999999
sg93
Nsg94
g2
(g87
g4
NtRp877
sg31
I01
sg96
F0.001
sg97
g2
(g28
g4
NtRp878
sg38
I00
sg45
I00
sg50
(dp879
sg100
I01
sg101
Nsg52
S'batch_normalization_15'
p880
sg55
Nsg71
(lp881
sg104
Nsbag2
(g105
g4
NtRp882
(dp883
g18
(lp884
sg7
(lp885
sg52
S'activation_15'
p886
sg9
I01
sg43
g111
sg10
(lp887
sg55
Nsg21
(dp888
sg23
(dp889
sg25
(lp890
sg71
(lp891
sg31
I01
sg45
I00
sg15
(lp892
sg50
(dp893
sg17
Nsbag2
(g3
g4
NtRp894
(dp895
g7
(lp896
sg9
I00
sg10
(lp897
sg12
I2
sg13
I64
sg14
I00
sg15
(lp898
sg17
Nsg18
(lp899
sg20
Nsg21
(dp900
sg23
(dp901
sg25
(lp902
sg27
g2
(g28
g4
NtRp903
sg30
Nsg31
I01
sg32
g2
(g33
g4
NtRp904
(dp905
g36
S'uniform'
p906
sg38
F1
sg39
Nsg40
S'fan_avg'
p907
sbsg42
Nsg43
g44
sg45
I00
sg46
S'same'
p908
sg48
g134
sg50
(dp909
sg52
S'conv2d_16'
p910
sg54
Nsg55
g2
(g56
g4
NtRp911
(dp912
g59
I4
sg60
Nsg61
Nsg62
(dp913
sg64
Nsg65
Nsbsg66
S'channels_last'
p914
sg68
g69
sg70
Nsg71
(lp915
sg73
(I1
I1
tp916
sbag2
(g75
g4
NtRp917
(dp918
g7
(lp919
sg9
I01
sg10
(lp920
sg15
(lp921
sg81
I3
sg18
(lp922
sg83
g2
(g28
g4
NtRp923
sg21
(dp924
sg86
g2
(g87
g4
NtRp925
sg23
(dp926
sg25
(lp927
sg91
Nsg17
Nsg92
F0.98999999999999999
sg93
Nsg94
g2
(g87
g4
NtRp928
sg31
I01
sg96
F0.001
sg97
g2
(g28
g4
NtRp929
sg38
I00
sg45
I00
sg50
(dp930
sg100
I01
sg101
Nsg52
S'batch_normalization_16'
p931
sg55
Nsg71
(lp932
sg104
Nsbag2
(g105
g4
NtRp933
(dp934
g18
(lp935
sg7
(lp936
sg52
S'activation_16'
p937
sg9
I01
sg43
g111
sg10
(lp938
sg55
Nsg21
(dp939
sg23
(dp940
sg25
(lp941
sg71
(lp942
sg31
I01
sg45
I00
sg15
(lp943
sg50
(dp944
sg17
Nsbag2
(g3
g4
NtRp945
(dp946
g7
(lp947
sg9
I00
sg10
(lp948
sg12
I2
sg13
I96
sg14
I00
sg15
(lp949
sg17
Nsg18
(lp950
sg20
Nsg21
(dp951
sg23
(dp952
sg25
(lp953
sg27
g2
(g28
g4
NtRp954
sg30
Nsg31
I01
sg32
g2
(g33
g4
NtRp955
(dp956
g36
S'uniform'
p957
sg38
F1
sg39
Nsg40
S'fan_avg'
p958
sbsg42
Nsg43
g44
sg45
I00
sg46
S'same'
p959
sg48
g134
sg50
(dp960
sg52
S'conv2d_17'
p961
sg54
Nsg55
g2
(g56
g4
NtRp962
(dp963
g59
I4
sg60
Nsg61
Nsg62
(dp964
sg64
Nsg65
Nsbsg66
S'channels_last'
p965
sg68
g69
sg70
Nsg71
(lp966
sg73
(I3
I3
tp967
sbag2
(g75
g4
NtRp968
(dp969
g7
(lp970
sg9
I01
sg10
(lp971
sg15
(lp972
sg81
I3
sg18
(lp973
sg83
g2
(g28
g4
NtRp974
sg21
(dp975
sg86
g2
(g87
g4
NtRp976
sg23
(dp977
sg25
(lp978
sg91
Nsg17
Nsg92
F0.98999999999999999
sg93
Nsg94
g2
(g87
g4
NtRp979
sg31
I01
sg96
F0.001
sg97
g2
(g28
g4
NtRp980
sg38
I00
sg45
I00
sg50
(dp981
sg100
I01
sg101
Nsg52
S'batch_normalization_17'
p982
sg55
Nsg71
(lp983
sg104
Nsbag2
(g105
g4
NtRp984
(dp985
g18
(lp986
sg7
(lp987
sg52
S'activation_17'
p988
sg9
I01
sg43
g111
sg10
(lp989
sg55
Nsg21
(dp990
sg23
(dp991
sg25
(lp992
sg71
(lp993
sg31
I01
sg45
I00
sg15
(lp994
sg50
(dp995
sg17
Nsbag2
(g3
g4
NtRp996
(dp997
g7
(lp998
sg9
I00
sg10
(lp999
sg12
I2
sg13
I96
sg14
I00
sg15
(lp1000
sg17
Nsg18
(lp1001
sg20
Nsg21
(dp1002
sg23
(dp1003
sg25
(lp1004
sg27
g2
(g28
g4
NtRp1005
sg30
Nsg31
I01
sg32
g2
(g33
g4
NtRp1006
(dp1007
g36
S'uniform'
p1008
sg38
F1
sg39
Nsg40
S'fan_avg'
p1009
sbsg42
Nsg43
g44
sg45
I00
sg46
S'same'
p1010
sg48
g134
sg50
(dp1011
sg52
S'conv2d_18'
p1012
sg54
Nsg55
g2
(g56
g4
NtRp1013
(dp1014
g59
I4
sg60
Nsg61
Nsg62
(dp1015
sg64
Nsg65
Nsbsg66
S'channels_last'
p1016
sg68
g69
sg70
Nsg71
(lp1017
sg73
(I3
I3
tp1018
sbag2
(g75
g4
NtRp1019
(dp1020
g7
(lp1021
sg9
I01
sg10
(lp1022
sg15
(lp1023
sg81
I3
sg18
(lp1024
sg83
g2
(g28
g4
NtRp1025
sg21
(dp1026
sg86
g2
(g87
g4
NtRp1027
sg23
(dp1028
sg25
(lp1029
sg91
Nsg17
Nsg92
F0.98999999999999999
sg93
Nsg94
g2
(g87
g4
NtRp1030
sg31
I01
sg96
F0.001
sg97
g2
(g28
g4
NtRp1031
sg38
I00
sg45
I00
sg50
(dp1032
sg100
I01
sg101
Nsg52
S'batch_normalization_18'
p1033
sg55
Nsg71
(lp1034
sg104
Nsbag2
(g105
g4
NtRp1035
(dp1036
g18
(lp1037
sg7
(lp1038
sg52
S'activation_18'
p1039
sg9
I01
sg43
g111
sg10
(lp1040
sg55
Nsg21
(dp1041
sg23
(dp1042
sg25
(lp1043
sg71
(lp1044
sg31
I01
sg45
I00
sg15
(lp1045
sg50
(dp1046
sg17
Nsbag2
(g670
g4
NtRp1047
(dp1048
g46
S'same'
p1049
sg18
(lp1050
sg7
(lp1051
sg52
S'average_pooling2d_2'
p1052
sg48
(I1
I1
tp1053
sg9
I00
sg10
(lp1054
sg55
g2
(g56
g4
NtRp1055
(dp1056
g59
I4
sg60
Nsg61
Nsg62
(dp1057
sg64
Nsg65
Nsbsg66
S'channels_last'
p1058
sg21
(dp1059
sg23
(dp1060
sg25
(lp1061
sg71
(lp1062
sg239
(I3
I3
tp1063
sg31
I01
sg45
I00
sg15
(lp1064
sg50
(dp1065
sg17
Nsbag2
(g3
g4
NtRp1066
(dp1067
g7
(lp1068
sg9
I00
sg10
(lp1069
sg12
I2
sg13
I64
sg14
I00
sg15
(lp1070
sg17
Nsg18
(lp1071
sg20
Nsg21
(dp1072
sg23
(dp1073
sg25
(lp1074
sg27
g2
(g28
g4
NtRp1075
sg30
Nsg31
I01
sg32
g2
(g33
g4
NtRp1076
(dp1077
g36
S'uniform'
p1078
sg38
F1
sg39
Nsg40
S'fan_avg'
p1079
sbsg42
Nsg43
g44
sg45
I00
sg46
S'same'
p1080
sg48
g134
sg50
(dp1081
sg52
S'conv2d_19'
p1082
sg54
Nsg55
g2
(g56
g4
NtRp1083
(dp1084
g59
I4
sg60
Nsg61
Nsg62
(dp1085
sg64
Nsg65
Nsbsg66
S'channels_last'
p1086
sg68
g69
sg70
Nsg71
(lp1087
sg73
(I1
I1
tp1088
sbag2
(g75
g4
NtRp1089
(dp1090
g7
(lp1091
sg9
I01
sg10
(lp1092
sg15
(lp1093
sg81
I3
sg18
(lp1094
sg83
g2
(g28
g4
NtRp1095
sg21
(dp1096
sg86
g2
(g87
g4
NtRp1097
sg23
(dp1098
sg25
(lp1099
sg91
Nsg17
Nsg92
F0.98999999999999999
sg93
Nsg94
g2
(g87
g4
NtRp1100
sg31
I01
sg96
F0.001
sg97
g2
(g28
g4
NtRp1101
sg38
I00
sg45
I00
sg50
(dp1102
sg100
I01
sg101
Nsg52
S'batch_normalization_19'
p1103
sg55
Nsg71
(lp1104
sg104
Nsbag2
(g105
g4
NtRp1105
(dp1106
g18
(lp1107
sg7
(lp1108
sg52
S'activation_19'
p1109
sg9
I01
sg43
g111
sg10
(lp1110
sg55
Nsg21
(dp1111
sg23
(dp1112
sg25
(lp1113
sg71
(lp1114
sg31
I01
sg45
I00
sg15
(lp1115
sg50
(dp1116
sg17
Nsbag2
(g3
g4
NtRp1117
(dp1118
g7
(lp1119
sg9
I00
sg10
(lp1120
sg12
I2
sg13
I64
sg14
I00
sg15
(lp1121
sg17
Nsg18
(lp1122
sg20
Nsg21
(dp1123
sg23
(dp1124
sg25
(lp1125
sg27
g2
(g28
g4
NtRp1126
sg30
Nsg31
I01
sg32
g2
(g33
g4
NtRp1127
(dp1128
g36
S'uniform'
p1129
sg38
F1
sg39
Nsg40
S'fan_avg'
p1130
sbsg42
Nsg43
g44
sg45
I00
sg46
S'same'
p1131
sg48
g134
sg50
(dp1132
sg52
S'conv2d_20'
p1133
sg54
Nsg55
g2
(g56
g4
NtRp1134
(dp1135
g59
I4
sg60
Nsg61
Nsg62
(dp1136
sg64
Nsg65
Nsbsg66
S'channels_last'
p1137
sg68
g69
sg70
Nsg71
(lp1138
sg73
(I1
I1
tp1139
sbag2
(g75
g4
NtRp1140
(dp1141
g7
(lp1142
sg9
I01
sg10
(lp1143
sg15
(lp1144
sg81
I3
sg18
(lp1145
sg83
g2
(g28
g4
NtRp1146
sg21
(dp1147
sg86
g2
(g87
g4
NtRp1148
sg23
(dp1149
sg25
(lp1150
sg91
Nsg17
Nsg92
F0.98999999999999999
sg93
Nsg94
g2
(g87
g4
NtRp1151
sg31
I01
sg96
F0.001
sg97
g2
(g28
g4
NtRp1152
sg38
I00
sg45
I00
sg50
(dp1153
sg100
I01
sg101
Nsg52
S'batch_normalization_20'
p1154
sg55
Nsg71
(lp1155
sg104
Nsbag2
(g105
g4
NtRp1156
(dp1157
g18
(lp1158
sg7
(lp1159
sg52
S'activation_20'
p1160
sg9
I01
sg43
g111
sg10
(lp1161
sg55
Nsg21
(dp1162
sg23
(dp1163
sg25
(lp1164
sg71
(lp1165
sg31
I01
sg45
I00
sg15
(lp1166
sg50
(dp1167
sg17
Nsbag2
(g3
g4
NtRp1168
(dp1169
g7
(lp1170
sg9
I00
sg10
(lp1171
sg12
I2
sg13
I48
sg14
I00
sg15
(lp1172
sg17
Nsg18
(lp1173
sg20
Nsg21
(dp1174
sg23
(dp1175
sg25
(lp1176
sg27
g2
(g28
g4
NtRp1177
sg30
Nsg31
I01
sg32
g2
(g33
g4
NtRp1178
(dp1179
g36
S'uniform'
p1180
sg38
F1
sg39
Nsg40
S'fan_avg'
p1181
sbsg42
Nsg43
g44
sg45
I00
sg46
S'same'
p1182
sg48
g134
sg50
(dp1183
sg52
S'conv2d_21'
p1184
sg54
Nsg55
g2
(g56
g4
NtRp1185
(dp1186
g59
I4
sg60
Nsg61
Nsg62
(dp1187
sg64
Nsg65
Nsbsg66
S'channels_last'
p1188
sg68
g69
sg70
Nsg71
(lp1189
sg73
(I1
I1
tp1190
sbag2
(g75
g4
NtRp1191
(dp1192
g7
(lp1193
sg9
I01
sg10
(lp1194
sg15
(lp1195
sg81
I3
sg18
(lp1196
sg83
g2
(g28
g4
NtRp1197
sg21
(dp1198
sg86
g2
(g87
g4
NtRp1199
sg23
(dp1200
sg25
(lp1201
sg91
Nsg17
Nsg92
F0.98999999999999999
sg93
Nsg94
g2
(g87
g4
NtRp1202
sg31
I01
sg96
F0.001
sg97
g2
(g28
g4
NtRp1203
sg38
I00
sg45
I00
sg50
(dp1204
sg100
I01
sg101
Nsg52
S'batch_normalization_21'
p1205
sg55
Nsg71
(lp1206
sg104
Nsbag2
(g105
g4
NtRp1207
(dp1208
g18
(lp1209
sg7
(lp1210
sg52
S'activation_21'
p1211
sg9
I01
sg43
g111
sg10
(lp1212
sg55
Nsg21
(dp1213
sg23
(dp1214
sg25
(lp1215
sg71
(lp1216
sg31
I01
sg45
I00
sg15
(lp1217
sg50
(dp1218
sg17
Nsbag2
(g3
g4
NtRp1219
(dp1220
g7
(lp1221
sg9
I00
sg10
(lp1222
sg12
I2
sg13
I64
sg14
I00
sg15
(lp1223
sg17
Nsg18
(lp1224
sg20
Nsg21
(dp1225
sg23
(dp1226
sg25
(lp1227
sg27
g2
(g28
g4
NtRp1228
sg30
Nsg31
I01
sg32
g2
(g33
g4
NtRp1229
(dp1230
g36
S'uniform'
p1231
sg38
F1
sg39
Nsg40
S'fan_avg'
p1232
sbsg42
Nsg43
g44
sg45
I00
sg46
S'same'
p1233
sg48
g134
sg50
(dp1234
sg52
S'conv2d_22'
p1235
sg54
Nsg55
g2
(g56
g4
NtRp1236
(dp1237
g59
I4
sg60
Nsg61
Nsg62
(dp1238
sg64
Nsg65
Nsbsg66
S'channels_last'
p1239
sg68
g69
sg70
Nsg71
(lp1240
sg73
(I5
I5
tp1241
sbag2
(g75
g4
NtRp1242
(dp1243
g7
(lp1244
sg9
I01
sg10
(lp1245
sg15
(lp1246
sg81
I3
sg18
(lp1247
sg83
g2
(g28
g4
NtRp1248
sg21
(dp1249
sg86
g2
(g87
g4
NtRp1250
sg23
(dp1251
sg25
(lp1252
sg91
Nsg17
Nsg92
F0.98999999999999999
sg93
Nsg94
g2
(g87
g4
NtRp1253
sg31
I01
sg96
F0.001
sg97
g2
(g28
g4
NtRp1254
sg38
I00
sg45
I00
sg50
(dp1255
sg100
I01
sg101
Nsg52
S'batch_normalization_22'
p1256
sg55
Nsg71
(lp1257
sg104
Nsbag2
(g105
g4
NtRp1258
(dp1259
g18
(lp1260
sg7
(lp1261
sg52
S'activation_22'
p1262
sg9
I01
sg43
g111
sg10
(lp1263
sg55
Nsg21
(dp1264
sg23
(dp1265
sg25
(lp1266
sg71
(lp1267
sg31
I01
sg45
I00
sg15
(lp1268
sg50
(dp1269
sg17
Nsbag2
(g3
g4
NtRp1270
(dp1271
g7
(lp1272
sg9
I00
sg10
(lp1273
sg12
I2
sg13
I64
sg14
I00
sg15
(lp1274
sg17
Nsg18
(lp1275
sg20
Nsg21
(dp1276
sg23
(dp1277
sg25
(lp1278
sg27
g2
(g28
g4
NtRp1279
sg30
Nsg31
I01
sg32
g2
(g33
g4
NtRp1280
(dp1281
g36
S'uniform'
p1282
sg38
F1
sg39
Nsg40
S'fan_avg'
p1283
sbsg42
Nsg43
g44
sg45
I00
sg46
S'same'
p1284
sg48
g134
sg50
(dp1285
sg52
S'conv2d_23'
p1286
sg54
Nsg55
g2
(g56
g4
NtRp1287
(dp1288
g59
I4
sg60
Nsg61
Nsg62
(dp1289
sg64
Nsg65
Nsbsg66
S'channels_last'
p1290
sg68
g69
sg70
Nsg71
(lp1291
sg73
(I1
I1
tp1292
sbag2
(g75
g4
NtRp1293
(dp1294
g7
(lp1295
sg9
I01
sg10
(lp1296
sg15
(lp1297
sg81
I3
sg18
(lp1298
sg83
g2
(g28
g4
NtRp1299
sg21
(dp1300
sg86
g2
(g87
g4
NtRp1301
sg23
(dp1302
sg25
(lp1303
sg91
Nsg17
Nsg92
F0.98999999999999999
sg93
Nsg94
g2
(g87
g4
NtRp1304
sg31
I01
sg96
F0.001
sg97
g2
(g28
g4
NtRp1305
sg38
I00
sg45
I00
sg50
(dp1306
sg100
I01
sg101
Nsg52
S'batch_normalization_23'
p1307
sg55
Nsg71
(lp1308
sg104
Nsbag2
(g105
g4
NtRp1309
(dp1310
g18
(lp1311
sg7
(lp1312
sg52
S'activation_23'
p1313
sg9
I01
sg43
g111
sg10
(lp1314
sg55
Nsg21
(dp1315
sg23
(dp1316
sg25
(lp1317
sg71
(lp1318
sg31
I01
sg45
I00
sg15
(lp1319
sg50
(dp1320
sg17
Nsbag2
(g3
g4
NtRp1321
(dp1322
g7
(lp1323
sg9
I00
sg10
(lp1324
sg12
I2
sg13
I96
sg14
I00
sg15
(lp1325
sg17
Nsg18
(lp1326
sg20
Nsg21
(dp1327
sg23
(dp1328
sg25
(lp1329
sg27
g2
(g28
g4
NtRp1330
sg30
Nsg31
I01
sg32
g2
(g33
g4
NtRp1331
(dp1332
g36
S'uniform'
p1333
sg38
F1
sg39
Nsg40
S'fan_avg'
p1334
sbsg42
Nsg43
g44
sg45
I00
sg46
S'same'
p1335
sg48
g134
sg50
(dp1336
sg52
S'conv2d_24'
p1337
sg54
Nsg55
g2
(g56
g4
NtRp1338
(dp1339
g59
I4
sg60
Nsg61
Nsg62
(dp1340
sg64
Nsg65
Nsbsg66
S'channels_last'
p1341
sg68
g69
sg70
Nsg71
(lp1342
sg73
(I3
I3
tp1343
sbag2
(g75
g4
NtRp1344
(dp1345
g7
(lp1346
sg9
I01
sg10
(lp1347
sg15
(lp1348
sg81
I3
sg18
(lp1349
sg83
g2
(g28
g4
NtRp1350
sg21
(dp1351
sg86
g2
(g87
g4
NtRp1352
sg23
(dp1353
sg25
(lp1354
sg91
Nsg17
Nsg92
F0.98999999999999999
sg93
Nsg94
g2
(g87
g4
NtRp1355
sg31
I01
sg96
F0.001
sg97
g2
(g28
g4
NtRp1356
sg38
I00
sg45
I00
sg50
(dp1357
sg100
I01
sg101
Nsg52
S'batch_normalization_24'
p1358
sg55
Nsg71
(lp1359
sg104
Nsbag2
(g105
g4
NtRp1360
(dp1361
g18
(lp1362
sg7
(lp1363
sg52
S'activation_24'
p1364
sg9
I01
sg43
g111
sg10
(lp1365
sg55
Nsg21
(dp1366
sg23
(dp1367
sg25
(lp1368
sg71
(lp1369
sg31
I01
sg45
I00
sg15
(lp1370
sg50
(dp1371
sg17
Nsbag2
(g3
g4
NtRp1372
(dp1373
g7
(lp1374
sg9
I00
sg10
(lp1375
sg12
I2
sg13
I96
sg14
I00
sg15
(lp1376
sg17
Nsg18
(lp1377
sg20
Nsg21
(dp1378
sg23
(dp1379
sg25
(lp1380
sg27
g2
(g28
g4
NtRp1381
sg30
Nsg31
I01
sg32
g2
(g33
g4
NtRp1382
(dp1383
g36
S'uniform'
p1384
sg38
F1
sg39
Nsg40
S'fan_avg'
p1385
sbsg42
Nsg43
g44
sg45
I00
sg46
S'same'
p1386
sg48
g134
sg50
(dp1387
sg52
S'conv2d_25'
p1388
sg54
Nsg55
g2
(g56
g4
NtRp1389
(dp1390
g59
I4
sg60
Nsg61
Nsg62
(dp1391
sg64
Nsg65
Nsbsg66
S'channels_last'
p1392
sg68
g69
sg70
Nsg71
(lp1393
sg73
(I3
I3
tp1394
sbag2
(g75
g4
NtRp1395
(dp1396
g7
(lp1397
sg9
I01
sg10
(lp1398
sg15
(lp1399
sg81
I3
sg18
(lp1400
sg83
g2
(g28
g4
NtRp1401
sg21
(dp1402
sg86
g2
(g87
g4
NtRp1403
sg23
(dp1404
sg25
(lp1405
sg91
Nsg17
Nsg92
F0.98999999999999999
sg93
Nsg94
g2
(g87
g4
NtRp1406
sg31
I01
sg96
F0.001
sg97
g2
(g28
g4
NtRp1407
sg38
I00
sg45
I00
sg50
(dp1408
sg100
I01
sg101
Nsg52
S'batch_normalization_25'
p1409
sg55
Nsg71
(lp1410
sg104
Nsbag2
(g105
g4
NtRp1411
(dp1412
g18
(lp1413
sg7
(lp1414
sg52
S'activation_25'
p1415
sg9
I01
sg43
g111
sg10
(lp1416
sg55
Nsg21
(dp1417
sg23
(dp1418
sg25
(lp1419
sg71
(lp1420
sg31
I01
sg45
I00
sg15
(lp1421
sg50
(dp1422
sg17
Nsbag2
(g670
g4
NtRp1423
(dp1424
g46
S'same'
p1425
sg18
(lp1426
sg7
(lp1427
sg52
S'average_pooling2d_3'
p1428
sg48
(I1
I1
tp1429
sg9
I00
sg10
(lp1430
sg55
g2
(g56
g4
NtRp1431
(dp1432
g59
I4
sg60
Nsg61
Nsg62
(dp1433
sg64
Nsg65
Nsbsg66
S'channels_last'
p1434
sg21
(dp1435
sg23
(dp1436
sg25
(lp1437
sg71
(lp1438
sg239
(I3
I3
tp1439
sg31
I01
sg45
I00
sg15
(lp1440
sg50
(dp1441
sg17
Nsbag2
(g3
g4
NtRp1442
(dp1443
g7
(lp1444
sg9
I00
sg10
(lp1445
sg12
I2
sg13
I64
sg14
I00
sg15
(lp1446
sg17
Nsg18
(lp1447
sg20
Nsg21
(dp1448
sg23
(dp1449
sg25
(lp1450
sg27
g2
(g28
g4
NtRp1451
sg30
Nsg31
I01
sg32
g2
(g33
g4
NtRp1452
(dp1453
g36
S'uniform'
p1454
sg38
F1
sg39
Nsg40
S'fan_avg'
p1455
sbsg42
Nsg43
g44
sg45
I00
sg46
S'same'
p1456
sg48
g134
sg50
(dp1457
sg52
S'conv2d_26'
p1458
sg54
Nsg55
g2
(g56
g4
NtRp1459
(dp1460
g59
I4
sg60
Nsg61
Nsg62
(dp1461
sg64
Nsg65
Nsbsg66
S'channels_last'
p1462
sg68
g69
sg70
Nsg71
(lp1463
sg73
(I1
I1
tp1464
sbag2
(g75
g4
NtRp1465
(dp1466
g7
(lp1467
sg9
I01
sg10
(lp1468
sg15
(lp1469
sg81
I3
sg18
(lp1470
sg83
g2
(g28
g4
NtRp1471
sg21
(dp1472
sg86
g2
(g87
g4
NtRp1473
sg23
(dp1474
sg25
(lp1475
sg91
Nsg17
Nsg92
F0.98999999999999999
sg93
Nsg94
g2
(g87
g4
NtRp1476
sg31
I01
sg96
F0.001
sg97
g2
(g28
g4
NtRp1477
sg38
I00
sg45
I00
sg50
(dp1478
sg100
I01
sg101
Nsg52
S'batch_normalization_26'
p1479
sg55
Nsg71
(lp1480
sg104
Nsbag2
(g105
g4
NtRp1481
(dp1482
g18
(lp1483
sg7
(lp1484
sg52
S'activation_26'
p1485
sg9
I01
sg43
g111
sg10
(lp1486
sg55
Nsg21
(dp1487
sg23
(dp1488
sg25
(lp1489
sg71
(lp1490
sg31
I01
sg45
I00
sg15
(lp1491
sg50
(dp1492
sg17
Nsbag2
(g3
g4
NtRp1493
(dp1494
g7
(lp1495
sg9
I00
sg10
(lp1496
sg12
I2
sg13
I384
sg14
I00
sg15
(lp1497
sg17
Nsg18
(lp1498
sg20
Nsg21
(dp1499
sg23
(dp1500
sg25
(lp1501
sg27
g2
(g28
g4
NtRp1502
sg30
Nsg31
I01
sg32
g2
(g33
g4
NtRp1503
(dp1504
g36
S'uniform'
p1505
sg38
F1
sg39
Nsg40
S'fan_avg'
p1506
sbsg42
Nsg43
g44
sg45
I00
sg46
S'valid'
p1507
sg48
(I2
I2
tp1508
sg50
(dp1509
sg52
S'conv2d_27'
p1510
sg54
Nsg55
g2
(g56
g4
NtRp1511
(dp1512
g59
I4
sg60
Nsg61
Nsg62
(dp1513
sg64
Nsg65
Nsbsg66
S'channels_last'
p1514
sg68
g69
sg70
Nsg71
(lp1515
sg73
(I3
I3
tp1516
sbag2
(g75
g4
NtRp1517
(dp1518
g7
(lp1519
sg9
I01
sg10
(lp1520
sg15
(lp1521
sg81
I3
sg18
(lp1522
sg83
g2
(g28
g4
NtRp1523
sg21
(dp1524
sg86
g2
(g87
g4
NtRp1525
sg23
(dp1526
sg25
(lp1527
sg91
Nsg17
Nsg92
F0.98999999999999999
sg93
Nsg94
g2
(g87
g4
NtRp1528
sg31
I01
sg96
F0.001
sg97
g2
(g28
g4
NtRp1529
sg38
I00
sg45
I00
sg50
(dp1530
sg100
I01
sg101
Nsg52
S'batch_normalization_27'
p1531
sg55
Nsg71
(lp1532
sg104
Nsbag2
(g105
g4
NtRp1533
(dp1534
g18
(lp1535
sg7
(lp1536
sg52
S'activation_27'
p1537
sg9
I01
sg43
g111
sg10
(lp1538
sg55
Nsg21
(dp1539
sg23
(dp1540
sg25
(lp1541
sg71
(lp1542
sg31
I01
sg45
I00
sg15
(lp1543
sg50
(dp1544
sg17
Nsbag2
(g3
g4
NtRp1545
(dp1546
g7
(lp1547
sg9
I00
sg10
(lp1548
sg12
I2
sg13
I64
sg14
I00
sg15
(lp1549
sg17
Nsg18
(lp1550
sg20
Nsg21
(dp1551
sg23
(dp1552
sg25
(lp1553
sg27
g2
(g28
g4
NtRp1554
sg30
Nsg31
I01
sg32
g2
(g33
g4
NtRp1555
(dp1556
g36
S'uniform'
p1557
sg38
F1
sg39
Nsg40
S'fan_avg'
p1558
sbsg42
Nsg43
g44
sg45
I00
sg46
S'same'
p1559
sg48
g134
sg50
(dp1560
sg52
S'conv2d_28'
p1561
sg54
Nsg55
g2
(g56
g4
NtRp1562
(dp1563
g59
I4
sg60
Nsg61
Nsg62
(dp1564
sg64
Nsg65
Nsbsg66
S'channels_last'
p1565
sg68
g69
sg70
Nsg71
(lp1566
sg73
(I1
I1
tp1567
sbag2
(g75
g4
NtRp1568
(dp1569
g7
(lp1570
sg9
I01
sg10
(lp1571
sg15
(lp1572
sg81
I3
sg18
(lp1573
sg83
g2
(g28
g4
NtRp1574
sg21
(dp1575
sg86
g2
(g87
g4
NtRp1576
sg23
(dp1577
sg25
(lp1578
sg91
Nsg17
Nsg92
F0.98999999999999999
sg93
Nsg94
g2
(g87
g4
NtRp1579
sg31
I01
sg96
F0.001
sg97
g2
(g28
g4
NtRp1580
sg38
I00
sg45
I00
sg50
(dp1581
sg100
I01
sg101
Nsg52
S'batch_normalization_28'
p1582
sg55
Nsg71
(lp1583
sg104
Nsbag2
(g105
g4
NtRp1584
(dp1585
g18
(lp1586
sg7
(lp1587
sg52
S'activation_28'
p1588
sg9
I01
sg43
g111
sg10
(lp1589
sg55
Nsg21
(dp1590
sg23
(dp1591
sg25
(lp1592
sg71
(lp1593
sg31
I01
sg45
I00
sg15
(lp1594
sg50
(dp1595
sg17
Nsbag2
(g3
g4
NtRp1596
(dp1597
g7
(lp1598
sg9
I00
sg10
(lp1599
sg12
I2
sg13
I96
sg14
I00
sg15
(lp1600
sg17
Nsg18
(lp1601
sg20
Nsg21
(dp1602
sg23
(dp1603
sg25
(lp1604
sg27
g2
(g28
g4
NtRp1605
sg30
Nsg31
I01
sg32
g2
(g33
g4
NtRp1606
(dp1607
g36
S'uniform'
p1608
sg38
F1
sg39
Nsg40
S'fan_avg'
p1609
sbsg42
Nsg43
g44
sg45
I00
sg46
S'same'
p1610
sg48
g134
sg50
(dp1611
sg52
S'conv2d_29'
p1612
sg54
Nsg55
g2
(g56
g4
NtRp1613
(dp1614
g59
I4
sg60
Nsg61
Nsg62
(dp1615
sg64
Nsg65
Nsbsg66
S'channels_last'
p1616
sg68
g69
sg70
Nsg71
(lp1617
sg73
(I3
I3
tp1618
sbag2
(g75
g4
NtRp1619
(dp1620
g7
(lp1621
sg9
I01
sg10
(lp1622
sg15
(lp1623
sg81
I3
sg18
(lp1624
sg83
g2
(g28
g4
NtRp1625
sg21
(dp1626
sg86
g2
(g87
g4
NtRp1627
sg23
(dp1628
sg25
(lp1629
sg91
Nsg17
Nsg92
F0.98999999999999999
sg93
Nsg94
g2
(g87
g4
NtRp1630
sg31
I01
sg96
F0.001
sg97
g2
(g28
g4
NtRp1631
sg38
I00
sg45
I00
sg50
(dp1632
sg100
I01
sg101
Nsg52
S'batch_normalization_29'
p1633
sg55
Nsg71
(lp1634
sg104
Nsbag2
(g105
g4
NtRp1635
(dp1636
g18
(lp1637
sg7
(lp1638
sg52
S'activation_29'
p1639
sg9
I01
sg43
g111
sg10
(lp1640
sg55
Nsg21
(dp1641
sg23
(dp1642
sg25
(lp1643
sg71
(lp1644
sg31
I01
sg45
I00
sg15
(lp1645
sg50
(dp1646
sg17
Nsbag2
(g3
g4
NtRp1647
(dp1648
g7
(lp1649
sg9
I00
sg10
(lp1650
sg12
I2
sg13
I96
sg14
I00
sg15
(lp1651
sg17
Nsg18
(lp1652
sg20
Nsg21
(dp1653
sg23
(dp1654
sg25
(lp1655
sg27
g2
(g28
g4
NtRp1656
sg30
Nsg31
I01
sg32
g2
(g33
g4
NtRp1657
(dp1658
g36
S'uniform'
p1659
sg38
F1
sg39
Nsg40
S'fan_avg'
p1660
sbsg42
Nsg43
g44
sg45
I00
sg46
S'valid'
p1661
sg48
(I2
I2
tp1662
sg50
(dp1663
sg52
S'conv2d_30'
p1664
sg54
Nsg55
g2
(g56
g4
NtRp1665
(dp1666
g59
I4
sg60
Nsg61
Nsg62
(dp1667
sg64
Nsg65
Nsbsg66
S'channels_last'
p1668
sg68
g69
sg70
Nsg71
(lp1669
sg73
(I3
I3
tp1670
sbag2
(g75
g4
NtRp1671
(dp1672
g7
(lp1673
sg9
I01
sg10
(lp1674
sg15
(lp1675
sg81
I3
sg18
(lp1676
sg83
g2
(g28
g4
NtRp1677
sg21
(dp1678
sg86
g2
(g87
g4
NtRp1679
sg23
(dp1680
sg25
(lp1681
sg91
Nsg17
Nsg92
F0.98999999999999999
sg93
Nsg94
g2
(g87
g4
NtRp1682
sg31
I01
sg96
F0.001
sg97
g2
(g28
g4
NtRp1683
sg38
I00
sg45
I00
sg50
(dp1684
sg100
I01
sg101
Nsg52
S'batch_normalization_30'
p1685
sg55
Nsg71
(lp1686
sg104
Nsbag2
(g105
g4
NtRp1687
(dp1688
g18
(lp1689
sg7
(lp1690
sg52
S'activation_30'
p1691
sg9
I01
sg43
g111
sg10
(lp1692
sg55
Nsg21
(dp1693
sg23
(dp1694
sg25
(lp1695
sg71
(lp1696
sg31
I01
sg45
I00
sg15
(lp1697
sg50
(dp1698
sg17
Nsbag2
(g222
g4
NtRp1699
(dp1700
g46
S'valid'
p1701
sg18
(lp1702
sg7
(lp1703
sg52
S'max_pooling2d_3'
p1704
sg48
(I2
I2
tp1705
sg9
I00
sg10
(lp1706
sg55
g2
(g56
g4
NtRp1707
(dp1708
g59
I4
sg60
Nsg61
Nsg62
(dp1709
sg64
Nsg65
Nsbsg66
S'channels_last'
p1710
sg21
(dp1711
sg23
(dp1712
sg25
(lp1713
sg71
(lp1714
sg239
(I3
I3
tp1715
sg31
I01
sg45
I00
sg15
(lp1716
sg50
(dp1717
sg17
Nsbag2
(g3
g4
NtRp1718
(dp1719
g7
(lp1720
sg9
I00
sg10
(lp1721
sg12
I2
sg13
I192
sg14
I00
sg15
(lp1722
sg17
Nsg18
(lp1723
sg20
Nsg21
(dp1724
sg23
(dp1725
sg25
(lp1726
sg27
g2
(g28
g4
NtRp1727
sg30
Nsg31
I01
sg32
g2
(g33
g4
NtRp1728
(dp1729
g36
S'uniform'
p1730
sg38
F1
sg39
Nsg40
S'fan_avg'
p1731
sbsg42
Nsg43
g44
sg45
I00
sg46
S'same'
p1732
sg48
g134
sg50
(dp1733
sg52
S'conv2d_31'
p1734
sg54
Nsg55
g2
(g56
g4
NtRp1735
(dp1736
g59
I4
sg60
Nsg61
Nsg62
(dp1737
sg64
Nsg65
Nsbsg66
S'channels_last'
p1738
sg68
g69
sg70
Nsg71
(lp1739
sg73
(I1
I1
tp1740
sbag2
(g75
g4
NtRp1741
(dp1742
g7
(lp1743
sg9
I01
sg10
(lp1744
sg15
(lp1745
sg81
I3
sg18
(lp1746
sg83
g2
(g28
g4
NtRp1747
sg21
(dp1748
sg86
g2
(g87
g4
NtRp1749
sg23
(dp1750
sg25
(lp1751
sg91
Nsg17
Nsg92
F0.98999999999999999
sg93
Nsg94
g2
(g87
g4
NtRp1752
sg31
I01
sg96
F0.001
sg97
g2
(g28
g4
NtRp1753
sg38
I00
sg45
I00
sg50
(dp1754
sg100
I01
sg101
Nsg52
S'batch_normalization_31'
p1755
sg55
Nsg71
(lp1756
sg104
Nsbag2
(g105
g4
NtRp1757
(dp1758
g18
(lp1759
sg7
(lp1760
sg52
S'activation_31'
p1761
sg9
I01
sg43
g111
sg10
(lp1762
sg55
Nsg21
(dp1763
sg23
(dp1764
sg25
(lp1765
sg71
(lp1766
sg31
I01
sg45
I00
sg15
(lp1767
sg50
(dp1768
sg17
Nsbag2
(g3
g4
NtRp1769
(dp1770
g7
(lp1771
sg9
I00
sg10
(lp1772
sg12
I2
sg13
I128
sg14
I00
sg15
(lp1773
sg17
Nsg18
(lp1774
sg20
Nsg21
(dp1775
sg23
(dp1776
sg25
(lp1777
sg27
g2
(g28
g4
NtRp1778
sg30
Nsg31
I01
sg32
g2
(g33
g4
NtRp1779
(dp1780
g36
S'uniform'
p1781
sg38
F1
sg39
Nsg40
S'fan_avg'
p1782
sbsg42
Nsg43
g44
sg45
I00
sg46
S'same'
p1783
sg48
g134
sg50
(dp1784
sg52
S'conv2d_32'
p1785
sg54
Nsg55
g2
(g56
g4
NtRp1786
(dp1787
g59
I4
sg60
Nsg61
Nsg62
(dp1788
sg64
Nsg65
Nsbsg66
S'channels_last'
p1789
sg68
g69
sg70
Nsg71
(lp1790
sg73
(I1
I1
tp1791
sbag2
(g75
g4
NtRp1792
(dp1793
g7
(lp1794
sg9
I01
sg10
(lp1795
sg15
(lp1796
sg81
I3
sg18
(lp1797
sg83
g2
(g28
g4
NtRp1798
sg21
(dp1799
sg86
g2
(g87
g4
NtRp1800
sg23
(dp1801
sg25
(lp1802
sg91
Nsg17
Nsg92
F0.98999999999999999
sg93
Nsg94
g2
(g87
g4
NtRp1803
sg31
I01
sg96
F0.001
sg97
g2
(g28
g4
NtRp1804
sg38
I00
sg45
I00
sg50
(dp1805
sg100
I01
sg101
Nsg52
S'batch_normalization_32'
p1806
sg55
Nsg71
(lp1807
sg104
Nsbag2
(g105
g4
NtRp1808
(dp1809
g18
(lp1810
sg7
(lp1811
sg52
S'activation_32'
p1812
sg9
I01
sg43
g111
sg10
(lp1813
sg55
Nsg21
(dp1814
sg23
(dp1815
sg25
(lp1816
sg71
(lp1817
sg31
I01
sg45
I00
sg15
(lp1818
sg50
(dp1819
sg17
Nsbag2
(g3
g4
NtRp1820
(dp1821
g7
(lp1822
sg9
I00
sg10
(lp1823
sg12
I2
sg13
I128
sg14
I00
sg15
(lp1824
sg17
Nsg18
(lp1825
sg20
Nsg21
(dp1826
sg23
(dp1827
sg25
(lp1828
sg27
g2
(g28
g4
NtRp1829
sg30
Nsg31
I01
sg32
g2
(g33
g4
NtRp1830
(dp1831
g36
S'uniform'
p1832
sg38
F1
sg39
Nsg40
S'fan_avg'
p1833
sbsg42
Nsg43
g44
sg45
I00
sg46
S'same'
p1834
sg48
g134
sg50
(dp1835
sg52
S'conv2d_33'
p1836
sg54
Nsg55
g2
(g56
g4
NtRp1837
(dp1838
g59
I4
sg60
Nsg61
Nsg62
(dp1839
sg64
Nsg65
Nsbsg66
S'channels_last'
p1840
sg68
g69
sg70
Nsg71
(lp1841
sg73
(I1
I7
tp1842
sbag2
(g75
g4
NtRp1843
(dp1844
g7
(lp1845
sg9
I01
sg10
(lp1846
sg15
(lp1847
sg81
I3
sg18
(lp1848
sg83
g2
(g28
g4
NtRp1849
sg21
(dp1850
sg86
g2
(g87
g4
NtRp1851
sg23
(dp1852
sg25
(lp1853
sg91
Nsg17
Nsg92
F0.98999999999999999
sg93
Nsg94
g2
(g87
g4
NtRp1854
sg31
I01
sg96
F0.001
sg97
g2
(g28
g4
NtRp1855
sg38
I00
sg45
I00
sg50
(dp1856
sg100
I01
sg101
Nsg52
S'batch_normalization_33'
p1857
sg55
Nsg71
(lp1858
sg104
Nsbag2
(g105
g4
NtRp1859
(dp1860
g18
(lp1861
sg7
(lp1862
sg52
S'activation_33'
p1863
sg9
I01
sg43
g111
sg10
(lp1864
sg55
Nsg21
(dp1865
sg23
(dp1866
sg25
(lp1867
sg71
(lp1868
sg31
I01
sg45
I00
sg15
(lp1869
sg50
(dp1870
sg17
Nsbag2
(g3
g4
NtRp1871
(dp1872
g7
(lp1873
sg9
I00
sg10
(lp1874
sg12
I2
sg13
I192
sg14
I00
sg15
(lp1875
sg17
Nsg18
(lp1876
sg20
Nsg21
(dp1877
sg23
(dp1878
sg25
(lp1879
sg27
g2
(g28
g4
NtRp1880
sg30
Nsg31
I01
sg32
g2
(g33
g4
NtRp1881
(dp1882
g36
S'uniform'
p1883
sg38
F1
sg39
Nsg40
S'fan_avg'
p1884
sbsg42
Nsg43
g44
sg45
I00
sg46
S'same'
p1885
sg48
g134
sg50
(dp1886
sg52
S'conv2d_34'
p1887
sg54
Nsg55
g2
(g56
g4
NtRp1888
(dp1889
g59
I4
sg60
Nsg61
Nsg62
(dp1890
sg64
Nsg65
Nsbsg66
S'channels_last'
p1891
sg68
g69
sg70
Nsg71
(lp1892
sg73
(I7
I1
tp1893
sbag2
(g75
g4
NtRp1894
(dp1895
g7
(lp1896
sg9
I01
sg10
(lp1897
sg15
(lp1898
sg81
I3
sg18
(lp1899
sg83
g2
(g28
g4
NtRp1900
sg21
(dp1901
sg86
g2
(g87
g4
NtRp1902
sg23
(dp1903
sg25
(lp1904
sg91
Nsg17
Nsg92
F0.98999999999999999
sg93
Nsg94
g2
(g87
g4
NtRp1905
sg31
I01
sg96
F0.001
sg97
g2
(g28
g4
NtRp1906
sg38
I00
sg45
I00
sg50
(dp1907
sg100
I01
sg101
Nsg52
S'batch_normalization_34'
p1908
sg55
Nsg71
(lp1909
sg104
Nsbag2
(g105
g4
NtRp1910
(dp1911
g18
(lp1912
sg7
(lp1913
sg52
S'activation_34'
p1914
sg9
I01
sg43
g111
sg10
(lp1915
sg55
Nsg21
(dp1916
sg23
(dp1917
sg25
(lp1918
sg71
(lp1919
sg31
I01
sg45
I00
sg15
(lp1920
sg50
(dp1921
sg17
Nsbag2
(g3
g4
NtRp1922
(dp1923
g7
(lp1924
sg9
I00
sg10
(lp1925
sg12
I2
sg13
I128
sg14
I00
sg15
(lp1926
sg17
Nsg18
(lp1927
sg20
Nsg21
(dp1928
sg23
(dp1929
sg25
(lp1930
sg27
g2
(g28
g4
NtRp1931
sg30
Nsg31
I01
sg32
g2
(g33
g4
NtRp1932
(dp1933
g36
S'uniform'
p1934
sg38
F1
sg39
Nsg40
S'fan_avg'
p1935
sbsg42
Nsg43
g44
sg45
I00
sg46
S'same'
p1936
sg48
g134
sg50
(dp1937
sg52
S'conv2d_35'
p1938
sg54
Nsg55
g2
(g56
g4
NtRp1939
(dp1940
g59
I4
sg60
Nsg61
Nsg62
(dp1941
sg64
Nsg65
Nsbsg66
S'channels_last'
p1942
sg68
g69
sg70
Nsg71
(lp1943
sg73
(I1
I1
tp1944
sbag2
(g75
g4
NtRp1945
(dp1946
g7
(lp1947
sg9
I01
sg10
(lp1948
sg15
(lp1949
sg81
I3
sg18
(lp1950
sg83
g2
(g28
g4
NtRp1951
sg21
(dp1952
sg86
g2
(g87
g4
NtRp1953
sg23
(dp1954
sg25
(lp1955
sg91
Nsg17
Nsg92
F0.98999999999999999
sg93
Nsg94
g2
(g87
g4
NtRp1956
sg31
I01
sg96
F0.001
sg97
g2
(g28
g4
NtRp1957
sg38
I00
sg45
I00
sg50
(dp1958
sg100
I01
sg101
Nsg52
S'batch_normalization_35'
p1959
sg55
Nsg71
(lp1960
sg104
Nsbag2
(g105
g4
NtRp1961
(dp1962
g18
(lp1963
sg7
(lp1964
sg52
S'activation_35'
p1965
sg9
I01
sg43
g111
sg10
(lp1966
sg55
Nsg21
(dp1967
sg23
(dp1968
sg25
(lp1969
sg71
(lp1970
sg31
I01
sg45
I00
sg15
(lp1971
sg50
(dp1972
sg17
Nsbag2
(g3
g4
NtRp1973
(dp1974
g7
(lp1975
sg9
I00
sg10
(lp1976
sg12
I2
sg13
I128
sg14
I00
sg15
(lp1977
sg17
Nsg18
(lp1978
sg20
Nsg21
(dp1979
sg23
(dp1980
sg25
(lp1981
sg27
g2
(g28
g4
NtRp1982
sg30
Nsg31
I01
sg32
g2
(g33
g4
NtRp1983
(dp1984
g36
S'uniform'
p1985
sg38
F1
sg39
Nsg40
S'fan_avg'
p1986
sbsg42
Nsg43
g44
sg45
I00
sg46
S'same'
p1987
sg48
g134
sg50
(dp1988
sg52
S'conv2d_36'
p1989
sg54
Nsg55
g2
(g56
g4
NtRp1990
(dp1991
g59
I4
sg60
Nsg61
Nsg62
(dp1992
sg64
Nsg65
Nsbsg66
S'channels_last'
p1993
sg68
g69
sg70
Nsg71
(lp1994
sg73
(I7
I1
tp1995
sbag2
(g75
g4
NtRp1996
(dp1997
g7
(lp1998
sg9
I01
sg10
(lp1999
sg15
(lp2000
sg81
I3
sg18
(lp2001
sg83
g2
(g28
g4
NtRp2002
sg21
(dp2003
sg86
g2
(g87
g4
NtRp2004
sg23
(dp2005
sg25
(lp2006
sg91
Nsg17
Nsg92
F0.98999999999999999
sg93
Nsg94
g2
(g87
g4
NtRp2007
sg31
I01
sg96
F0.001
sg97
g2
(g28
g4
NtRp2008
sg38
I00
sg45
I00
sg50
(dp2009
sg100
I01
sg101
Nsg52
S'batch_normalization_36'
p2010
sg55
Nsg71
(lp2011
sg104
Nsbag2
(g105
g4
NtRp2012
(dp2013
g18
(lp2014
sg7
(lp2015
sg52
S'activation_36'
p2016
sg9
I01
sg43
g111
sg10
(lp2017
sg55
Nsg21
(dp2018
sg23
(dp2019
sg25
(lp2020
sg71
(lp2021
sg31
I01
sg45
I00
sg15
(lp2022
sg50
(dp2023
sg17
Nsbag2
(g3
g4
NtRp2024
(dp2025
g7
(lp2026
sg9
I00
sg10
(lp2027
sg12
I2
sg13
I128
sg14
I00
sg15
(lp2028
sg17
Nsg18
(lp2029
sg20
Nsg21
(dp2030
sg23
(dp2031
sg25
(lp2032
sg27
g2
(g28
g4
NtRp2033
sg30
Nsg31
I01
sg32
g2
(g33
g4
NtRp2034
(dp2035
g36
S'uniform'
p2036
sg38
F1
sg39
Nsg40
S'fan_avg'
p2037
sbsg42
Nsg43
g44
sg45
I00
sg46
S'same'
p2038
sg48
g134
sg50
(dp2039
sg52
S'conv2d_37'
p2040
sg54
Nsg55
g2
(g56
g4
NtRp2041
(dp2042
g59
I4
sg60
Nsg61
Nsg62
(dp2043
sg64
Nsg65
Nsbsg66
S'channels_last'
p2044
sg68
g69
sg70
Nsg71
(lp2045
sg73
(I1
I7
tp2046
sbag2
(g75
g4
NtRp2047
(dp2048
g7
(lp2049
sg9
I01
sg10
(lp2050
sg15
(lp2051
sg81
I3
sg18
(lp2052
sg83
g2
(g28
g4
NtRp2053
sg21
(dp2054
sg86
g2
(g87
g4
NtRp2055
sg23
(dp2056
sg25
(lp2057
sg91
Nsg17
Nsg92
F0.98999999999999999
sg93
Nsg94
g2
(g87
g4
NtRp2058
sg31
I01
sg96
F0.001
sg97
g2
(g28
g4
NtRp2059
sg38
I00
sg45
I00
sg50
(dp2060
sg100
I01
sg101
Nsg52
S'batch_normalization_37'
p2061
sg55
Nsg71
(lp2062
sg104
Nsbag2
(g105
g4
NtRp2063
(dp2064
g18
(lp2065
sg7
(lp2066
sg52
S'activation_37'
p2067
sg9
I01
sg43
g111
sg10
(lp2068
sg55
Nsg21
(dp2069
sg23
(dp2070
sg25
(lp2071
sg71
(lp2072
sg31
I01
sg45
I00
sg15
(lp2073
sg50
(dp2074
sg17
Nsbag2
(g3
g4
NtRp2075
(dp2076
g7
(lp2077
sg9
I00
sg10
(lp2078
sg12
I2
sg13
I128
sg14
I00
sg15
(lp2079
sg17
Nsg18
(lp2080
sg20
Nsg21
(dp2081
sg23
(dp2082
sg25
(lp2083
sg27
g2
(g28
g4
NtRp2084
sg30
Nsg31
I01
sg32
g2
(g33
g4
NtRp2085
(dp2086
g36
S'uniform'
p2087
sg38
F1
sg39
Nsg40
S'fan_avg'
p2088
sbsg42
Nsg43
g44
sg45
I00
sg46
S'same'
p2089
sg48
g134
sg50
(dp2090
sg52
S'conv2d_38'
p2091
sg54
Nsg55
g2
(g56
g4
NtRp2092
(dp2093
g59
I4
sg60
Nsg61
Nsg62
(dp2094
sg64
Nsg65
Nsbsg66
S'channels_last'
p2095
sg68
g69
sg70
Nsg71
(lp2096
sg73
(I7
I1
tp2097
sbag2
(g75
g4
NtRp2098
(dp2099
g7
(lp2100
sg9
I01
sg10
(lp2101
sg15
(lp2102
sg81
I3
sg18
(lp2103
sg83
g2
(g28
g4
NtRp2104
sg21
(dp2105
sg86
g2
(g87
g4
NtRp2106
sg23
(dp2107
sg25
(lp2108
sg91
Nsg17
Nsg92
F0.98999999999999999
sg93
Nsg94
g2
(g87
g4
NtRp2109
sg31
I01
sg96
F0.001
sg97
g2
(g28
g4
NtRp2110
sg38
I00
sg45
I00
sg50
(dp2111
sg100
I01
sg101
Nsg52
S'batch_normalization_38'
p2112
sg55
Nsg71
(lp2113
sg104
Nsbag2
(g105
g4
NtRp2114
(dp2115
g18
(lp2116
sg7
(lp2117
sg52
S'activation_38'
p2118
sg9
I01
sg43
g111
sg10
(lp2119
sg55
Nsg21
(dp2120
sg23
(dp2121
sg25
(lp2122
sg71
(lp2123
sg31
I01
sg45
I00
sg15
(lp2124
sg50
(dp2125
sg17
Nsbag2
(g3
g4
NtRp2126
(dp2127
g7
(lp2128
sg9
I00
sg10
(lp2129
sg12
I2
sg13
I192
sg14
I00
sg15
(lp2130
sg17
Nsg18
(lp2131
sg20
Nsg21
(dp2132
sg23
(dp2133
sg25
(lp2134
sg27
g2
(g28
g4
NtRp2135
sg30
Nsg31
I01
sg32
g2
(g33
g4
NtRp2136
(dp2137
g36
S'uniform'
p2138
sg38
F1
sg39
Nsg40
S'fan_avg'
p2139
sbsg42
Nsg43
g44
sg45
I00
sg46
S'same'
p2140
sg48
g134
sg50
(dp2141
sg52
S'conv2d_39'
p2142
sg54
Nsg55
g2
(g56
g4
NtRp2143
(dp2144
g59
I4
sg60
Nsg61
Nsg62
(dp2145
sg64
Nsg65
Nsbsg66
S'channels_last'
p2146
sg68
g69
sg70
Nsg71
(lp2147
sg73
(I1
I7
tp2148
sbag2
(g75
g4
NtRp2149
(dp2150
g7
(lp2151
sg9
I01
sg10
(lp2152
sg15
(lp2153
sg81
I3
sg18
(lp2154
sg83
g2
(g28
g4
NtRp2155
sg21
(dp2156
sg86
g2
(g87
g4
NtRp2157
sg23
(dp2158
sg25
(lp2159
sg91
Nsg17
Nsg92
F0.98999999999999999
sg93
Nsg94
g2
(g87
g4
NtRp2160
sg31
I01
sg96
F0.001
sg97
g2
(g28
g4
NtRp2161
sg38
I00
sg45
I00
sg50
(dp2162
sg100
I01
sg101
Nsg52
S'batch_normalization_39'
p2163
sg55
Nsg71
(lp2164
sg104
Nsbag2
(g105
g4
NtRp2165
(dp2166
g18
(lp2167
sg7
(lp2168
sg52
S'activation_39'
p2169
sg9
I01
sg43
g111
sg10
(lp2170
sg55
Nsg21
(dp2171
sg23
(dp2172
sg25
(lp2173
sg71
(lp2174
sg31
I01
sg45
I00
sg15
(lp2175
sg50
(dp2176
sg17
Nsbag2
(g670
g4
NtRp2177
(dp2178
g46
S'same'
p2179
sg18
(lp2180
sg7
(lp2181
sg52
S'average_pooling2d_4'
p2182
sg48
(I1
I1
tp2183
sg9
I00
sg10
(lp2184
sg55
g2
(g56
g4
NtRp2185
(dp2186
g59
I4
sg60
Nsg61
Nsg62
(dp2187
sg64
Nsg65
Nsbsg66
S'channels_last'
p2188
sg21
(dp2189
sg23
(dp2190
sg25
(lp2191
sg71
(lp2192
sg239
(I3
I3
tp2193
sg31
I01
sg45
I00
sg15
(lp2194
sg50
(dp2195
sg17
Nsbag2
(g3
g4
NtRp2196
(dp2197
g7
(lp2198
sg9
I00
sg10
(lp2199
sg12
I2
sg13
I192
sg14
I00
sg15
(lp2200
sg17
Nsg18
(lp2201
sg20
Nsg21
(dp2202
sg23
(dp2203
sg25
(lp2204
sg27
g2
(g28
g4
NtRp2205
sg30
Nsg31
I01
sg32
g2
(g33
g4
NtRp2206
(dp2207
g36
S'uniform'
p2208
sg38
F1
sg39
Nsg40
S'fan_avg'
p2209
sbsg42
Nsg43
g44
sg45
I00
sg46
S'same'
p2210
sg48
g134
sg50
(dp2211
sg52
S'conv2d_40'
p2212
sg54
Nsg55
g2
(g56
g4
NtRp2213
(dp2214
g59
I4
sg60
Nsg61
Nsg62
(dp2215
sg64
Nsg65
Nsbsg66
S'channels_last'
p2216
sg68
g69
sg70
Nsg71
(lp2217
sg73
(I1
I1
tp2218
sbag2
(g75
g4
NtRp2219
(dp2220
g7
(lp2221
sg9
I01
sg10
(lp2222
sg15
(lp2223
sg81
I3
sg18
(lp2224
sg83
g2
(g28
g4
NtRp2225
sg21
(dp2226
sg86
g2
(g87
g4
NtRp2227
sg23
(dp2228
sg25
(lp2229
sg91
Nsg17
Nsg92
F0.98999999999999999
sg93
Nsg94
g2
(g87
g4
NtRp2230
sg31
I01
sg96
F0.001
sg97
g2
(g28
g4
NtRp2231
sg38
I00
sg45
I00
sg50
(dp2232
sg100
I01
sg101
Nsg52
S'batch_normalization_40'
p2233
sg55
Nsg71
(lp2234
sg104
Nsbag2
(g105
g4
NtRp2235
(dp2236
g18
(lp2237
sg7
(lp2238
sg52
S'activation_40'
p2239
sg9
I01
sg43
g111
sg10
(lp2240
sg55
Nsg21
(dp2241
sg23
(dp2242
sg25
(lp2243
sg71
(lp2244
sg31
I01
sg45
I00
sg15
(lp2245
sg50
(dp2246
sg17
Nsbag2
(g3
g4
NtRp2247
(dp2248
g7
(lp2249
sg9
I00
sg10
(lp2250
sg12
I2
sg13
I192
sg14
I00
sg15
(lp2251
sg17
Nsg18
(lp2252
sg20
Nsg21
(dp2253
sg23
(dp2254
sg25
(lp2255
sg27
g2
(g28
g4
NtRp2256
sg30
Nsg31
I01
sg32
g2
(g33
g4
NtRp2257
(dp2258
g36
S'uniform'
p2259
sg38
F1
sg39
Nsg40
S'fan_avg'
p2260
sbsg42
Nsg43
g44
sg45
I00
sg46
S'same'
p2261
sg48
g134
sg50
(dp2262
sg52
S'conv2d_41'
p2263
sg54
Nsg55
g2
(g56
g4
NtRp2264
(dp2265
g59
I4
sg60
Nsg61
Nsg62
(dp2266
sg64
Nsg65
Nsbsg66
S'channels_last'
p2267
sg68
g69
sg70
Nsg71
(lp2268
sg73
(I1
I1
tp2269
sbag2
(g75
g4
NtRp2270
(dp2271
g7
(lp2272
sg9
I01
sg10
(lp2273
sg15
(lp2274
sg81
I3
sg18
(lp2275
sg83
g2
(g28
g4
NtRp2276
sg21
(dp2277
sg86
g2
(g87
g4
NtRp2278
sg23
(dp2279
sg25
(lp2280
sg91
Nsg17
Nsg92
F0.98999999999999999
sg93
Nsg94
g2
(g87
g4
NtRp2281
sg31
I01
sg96
F0.001
sg97
g2
(g28
g4
NtRp2282
sg38
I00
sg45
I00
sg50
(dp2283
sg100
I01
sg101
Nsg52
S'batch_normalization_41'
p2284
sg55
Nsg71
(lp2285
sg104
Nsbag2
(g105
g4
NtRp2286
(dp2287
g18
(lp2288
sg7
(lp2289
sg52
S'activation_41'
p2290
sg9
I01
sg43
g111
sg10
(lp2291
sg55
Nsg21
(dp2292
sg23
(dp2293
sg25
(lp2294
sg71
(lp2295
sg31
I01
sg45
I00
sg15
(lp2296
sg50
(dp2297
sg17
Nsbag2
(g3
g4
NtRp2298
(dp2299
g7
(lp2300
sg9
I00
sg10
(lp2301
sg12
I2
sg13
I160
sg14
I00
sg15
(lp2302
sg17
Nsg18
(lp2303
sg20
Nsg21
(dp2304
sg23
(dp2305
sg25
(lp2306
sg27
g2
(g28
g4
NtRp2307
sg30
Nsg31
I01
sg32
g2
(g33
g4
NtRp2308
(dp2309
g36
S'uniform'
p2310
sg38
F1
sg39
Nsg40
S'fan_avg'
p2311
sbsg42
Nsg43
g44
sg45
I00
sg46
S'same'
p2312
sg48
g134
sg50
(dp2313
sg52
S'conv2d_42'
p2314
sg54
Nsg55
g2
(g56
g4
NtRp2315
(dp2316
g59
I4
sg60
Nsg61
Nsg62
(dp2317
sg64
Nsg65
Nsbsg66
S'channels_last'
p2318
sg68
g69
sg70
Nsg71
(lp2319
sg73
(I1
I1
tp2320
sbag2
(g75
g4
NtRp2321
(dp2322
g7
(lp2323
sg9
I01
sg10
(lp2324
sg15
(lp2325
sg81
I3
sg18
(lp2326
sg83
g2
(g28
g4
NtRp2327
sg21
(dp2328
sg86
g2
(g87
g4
NtRp2329
sg23
(dp2330
sg25
(lp2331
sg91
Nsg17
Nsg92
F0.98999999999999999
sg93
Nsg94
g2
(g87
g4
NtRp2332
sg31
I01
sg96
F0.001
sg97
g2
(g28
g4
NtRp2333
sg38
I00
sg45
I00
sg50
(dp2334
sg100
I01
sg101
Nsg52
S'batch_normalization_42'
p2335
sg55
Nsg71
(lp2336
sg104
Nsbag2
(g105
g4
NtRp2337
(dp2338
g18
(lp2339
sg7
(lp2340
sg52
S'activation_42'
p2341
sg9
I01
sg43
g111
sg10
(lp2342
sg55
Nsg21
(dp2343
sg23
(dp2344
sg25
(lp2345
sg71
(lp2346
sg31
I01
sg45
I00
sg15
(lp2347
sg50
(dp2348
sg17
Nsbag2
(g3
g4
NtRp2349
(dp2350
g7
(lp2351
sg9
I00
sg10
(lp2352
sg12
I2
sg13
I160
sg14
I00
sg15
(lp2353
sg17
Nsg18
(lp2354
sg20
Nsg21
(dp2355
sg23
(dp2356
sg25
(lp2357
sg27
g2
(g28
g4
NtRp2358
sg30
Nsg31
I01
sg32
g2
(g33
g4
NtRp2359
(dp2360
g36
S'uniform'
p2361
sg38
F1
sg39
Nsg40
S'fan_avg'
p2362
sbsg42
Nsg43
g44
sg45
I00
sg46
S'same'
p2363
sg48
g134
sg50
(dp2364
sg52
S'conv2d_43'
p2365
sg54
Nsg55
g2
(g56
g4
NtRp2366
(dp2367
g59
I4
sg60
Nsg61
Nsg62
(dp2368
sg64
Nsg65
Nsbsg66
S'channels_last'
p2369
sg68
g69
sg70
Nsg71
(lp2370
sg73
(I1
I7
tp2371
sbag2
(g75
g4
NtRp2372
(dp2373
g7
(lp2374
sg9
I01
sg10
(lp2375
sg15
(lp2376
sg81
I3
sg18
(lp2377
sg83
g2
(g28
g4
NtRp2378
sg21
(dp2379
sg86
g2
(g87
g4
NtRp2380
sg23
(dp2381
sg25
(lp2382
sg91
Nsg17
Nsg92
F0.98999999999999999
sg93
Nsg94
g2
(g87
g4
NtRp2383
sg31
I01
sg96
F0.001
sg97
g2
(g28
g4
NtRp2384
sg38
I00
sg45
I00
sg50
(dp2385
sg100
I01
sg101
Nsg52
S'batch_normalization_43'
p2386
sg55
Nsg71
(lp2387
sg104
Nsbag2
(g105
g4
NtRp2388
(dp2389
g18
(lp2390
sg7
(lp2391
sg52
S'activation_43'
p2392
sg9
I01
sg43
g111
sg10
(lp2393
sg55
Nsg21
(dp2394
sg23
(dp2395
sg25
(lp2396
sg71
(lp2397
sg31
I01
sg45
I00
sg15
(lp2398
sg50
(dp2399
sg17
Nsbag2
(g3
g4
NtRp2400
(dp2401
g7
(lp2402
sg9
I00
sg10
(lp2403
sg12
I2
sg13
I192
sg14
I00
sg15
(lp2404
sg17
Nsg18
(lp2405
sg20
Nsg21
(dp2406
sg23
(dp2407
sg25
(lp2408
sg27
g2
(g28
g4
NtRp2409
sg30
Nsg31
I01
sg32
g2
(g33
g4
NtRp2410
(dp2411
g36
S'uniform'
p2412
sg38
F1
sg39
Nsg40
S'fan_avg'
p2413
sbsg42
Nsg43
g44
sg45
I00
sg46
S'same'
p2414
sg48
g134
sg50
(dp2415
sg52
S'conv2d_44'
p2416
sg54
Nsg55
g2
(g56
g4
NtRp2417
(dp2418
g59
I4
sg60
Nsg61
Nsg62
(dp2419
sg64
Nsg65
Nsbsg66
S'channels_last'
p2420
sg68
g69
sg70
Nsg71
(lp2421
sg73
(I7
I1
tp2422
sbag2
(g75
g4
NtRp2423
(dp2424
g7
(lp2425
sg9
I01
sg10
(lp2426
sg15
(lp2427
sg81
I3
sg18
(lp2428
sg83
g2
(g28
g4
NtRp2429
sg21
(dp2430
sg86
g2
(g87
g4
NtRp2431
sg23
(dp2432
sg25
(lp2433
sg91
Nsg17
Nsg92
F0.98999999999999999
sg93
Nsg94
g2
(g87
g4
NtRp2434
sg31
I01
sg96
F0.001
sg97
g2
(g28
g4
NtRp2435
sg38
I00
sg45
I00
sg50
(dp2436
sg100
I01
sg101
Nsg52
S'batch_normalization_44'
p2437
sg55
Nsg71
(lp2438
sg104
Nsbag2
(g105
g4
NtRp2439
(dp2440
g18
(lp2441
sg7
(lp2442
sg52
S'activation_44'
p2443
sg9
I01
sg43
g111
sg10
(lp2444
sg55
Nsg21
(dp2445
sg23
(dp2446
sg25
(lp2447
sg71
(lp2448
sg31
I01
sg45
I00
sg15
(lp2449
sg50
(dp2450
sg17
Nsbag2
(g3
g4
NtRp2451
(dp2452
g7
(lp2453
sg9
I00
sg10
(lp2454
sg12
I2
sg13
I160
sg14
I00
sg15
(lp2455
sg17
Nsg18
(lp2456
sg20
Nsg21
(dp2457
sg23
(dp2458
sg25
(lp2459
sg27
g2
(g28
g4
NtRp2460
sg30
Nsg31
I01
sg32
g2
(g33
g4
NtRp2461
(dp2462
g36
S'uniform'
p2463
sg38
F1
sg39
Nsg40
S'fan_avg'
p2464
sbsg42
Nsg43
g44
sg45
I00
sg46
S'same'
p2465
sg48
g134
sg50
(dp2466
sg52
S'conv2d_45'
p2467
sg54
Nsg55
g2
(g56
g4
NtRp2468
(dp2469
g59
I4
sg60
Nsg61
Nsg62
(dp2470
sg64
Nsg65
Nsbsg66
S'channels_last'
p2471
sg68
g69
sg70
Nsg71
(lp2472
sg73
(I1
I1
tp2473
sbag2
(g75
g4
NtRp2474
(dp2475
g7
(lp2476
sg9
I01
sg10
(lp2477
sg15
(lp2478
sg81
I3
sg18
(lp2479
sg83
g2
(g28
g4
NtRp2480
sg21
(dp2481
sg86
g2
(g87
g4
NtRp2482
sg23
(dp2483
sg25
(lp2484
sg91
Nsg17
Nsg92
F0.98999999999999999
sg93
Nsg94
g2
(g87
g4
NtRp2485
sg31
I01
sg96
F0.001
sg97
g2
(g28
g4
NtRp2486
sg38
I00
sg45
I00
sg50
(dp2487
sg100
I01
sg101
Nsg52
S'batch_normalization_45'
p2488
sg55
Nsg71
(lp2489
sg104
Nsbag2
(g105
g4
NtRp2490
(dp2491
g18
(lp2492
sg7
(lp2493
sg52
S'activation_45'
p2494
sg9
I01
sg43
g111
sg10
(lp2495
sg55
Nsg21
(dp2496
sg23
(dp2497
sg25
(lp2498
sg71
(lp2499
sg31
I01
sg45
I00
sg15
(lp2500
sg50
(dp2501
sg17
Nsbag2
(g3
g4
NtRp2502
(dp2503
g7
(lp2504
sg9
I00
sg10
(lp2505
sg12
I2
sg13
I160
sg14
I00
sg15
(lp2506
sg17
Nsg18
(lp2507
sg20
Nsg21
(dp2508
sg23
(dp2509
sg25
(lp2510
sg27
g2
(g28
g4
NtRp2511
sg30
Nsg31
I01
sg32
g2
(g33
g4
NtRp2512
(dp2513
g36
S'uniform'
p2514
sg38
F1
sg39
Nsg40
S'fan_avg'
p2515
sbsg42
Nsg43
g44
sg45
I00
sg46
S'same'
p2516
sg48
g134
sg50
(dp2517
sg52
S'conv2d_46'
p2518
sg54
Nsg55
g2
(g56
g4
NtRp2519
(dp2520
g59
I4
sg60
Nsg61
Nsg62
(dp2521
sg64
Nsg65
Nsbsg66
S'channels_last'
p2522
sg68
g69
sg70
Nsg71
(lp2523
sg73
(I7
I1
tp2524
sbag2
(g75
g4
NtRp2525
(dp2526
g7
(lp2527
sg9
I01
sg10
(lp2528
sg15
(lp2529
sg81
I3
sg18
(lp2530
sg83
g2
(g28
g4
NtRp2531
sg21
(dp2532
sg86
g2
(g87
g4
NtRp2533
sg23
(dp2534
sg25
(lp2535
sg91
Nsg17
Nsg92
F0.98999999999999999
sg93
Nsg94
g2
(g87
g4
NtRp2536
sg31
I01
sg96
F0.001
sg97
g2
(g28
g4
NtRp2537
sg38
I00
sg45
I00
sg50
(dp2538
sg100
I01
sg101
Nsg52
S'batch_normalization_46'
p2539
sg55
Nsg71
(lp2540
sg104
Nsbag2
(g105
g4
NtRp2541
(dp2542
g18
(lp2543
sg7
(lp2544
sg52
S'activation_46'
p2545
sg9
I01
sg43
g111
sg10
(lp2546
sg55
Nsg21
(dp2547
sg23
(dp2548
sg25
(lp2549
sg71
(lp2550
sg31
I01
sg45
I00
sg15
(lp2551
sg50
(dp2552
sg17
Nsbag2
(g3
g4
NtRp2553
(dp2554
g7
(lp2555
sg9
I00
sg10
(lp2556
sg12
I2
sg13
I160
sg14
I00
sg15
(lp2557
sg17
Nsg18
(lp2558
sg20
Nsg21
(dp2559
sg23
(dp2560
sg25
(lp2561
sg27
g2
(g28
g4
NtRp2562
sg30
Nsg31
I01
sg32
g2
(g33
g4
NtRp2563
(dp2564
g36
S'uniform'
p2565
sg38
F1
sg39
Nsg40
S'fan_avg'
p2566
sbsg42
Nsg43
g44
sg45
I00
sg46
S'same'
p2567
sg48
g134
sg50
(dp2568
sg52
S'conv2d_47'
p2569
sg54
Nsg55
g2
(g56
g4
NtRp2570
(dp2571
g59
I4
sg60
Nsg61
Nsg62
(dp2572
sg64
Nsg65
Nsbsg66
S'channels_last'
p2573
sg68
g69
sg70
Nsg71
(lp2574
sg73
(I1
I7
tp2575
sbag2
(g75
g4
NtRp2576
(dp2577
g7
(lp2578
sg9
I01
sg10
(lp2579
sg15
(lp2580
sg81
I3
sg18
(lp2581
sg83
g2
(g28
g4
NtRp2582
sg21
(dp2583
sg86
g2
(g87
g4
NtRp2584
sg23
(dp2585
sg25
(lp2586
sg91
Nsg17
Nsg92
F0.98999999999999999
sg93
Nsg94
g2
(g87
g4
NtRp2587
sg31
I01
sg96
F0.001
sg97
g2
(g28
g4
NtRp2588
sg38
I00
sg45
I00
sg50
(dp2589
sg100
I01
sg101
Nsg52
S'batch_normalization_47'
p2590
sg55
Nsg71
(lp2591
sg104
Nsbag2
(g105
g4
NtRp2592
(dp2593
g18
(lp2594
sg7
(lp2595
sg52
S'activation_47'
p2596
sg9
I01
sg43
g111
sg10
(lp2597
sg55
Nsg21
(dp2598
sg23
(dp2599
sg25
(lp2600
sg71
(lp2601
sg31
I01
sg45
I00
sg15
(lp2602
sg50
(dp2603
sg17
Nsbag2
(g3
g4
NtRp2604
(dp2605
g7
(lp2606
sg9
I00
sg10
(lp2607
sg12
I2
sg13
I160
sg14
I00
sg15
(lp2608
sg17
Nsg18
(lp2609
sg20
Nsg21
(dp2610
sg23
(dp2611
sg25
(lp2612
sg27
g2
(g28
g4
NtRp2613
sg30
Nsg31
I01
sg32
g2
(g33
g4
NtRp2614
(dp2615
g36
S'uniform'
p2616
sg38
F1
sg39
Nsg40
S'fan_avg'
p2617
sbsg42
Nsg43
g44
sg45
I00
sg46
S'same'
p2618
sg48
g134
sg50
(dp2619
sg52
S'conv2d_48'
p2620
sg54
Nsg55
g2
(g56
g4
NtRp2621
(dp2622
g59
I4
sg60
Nsg61
Nsg62
(dp2623
sg64
Nsg65
Nsbsg66
S'channels_last'
p2624
sg68
g69
sg70
Nsg71
(lp2625
sg73
(I7
I1
tp2626
sbag2
(g75
g4
NtRp2627
(dp2628
g7
(lp2629
sg9
I01
sg10
(lp2630
sg15
(lp2631
sg81
I3
sg18
(lp2632
sg83
g2
(g28
g4
NtRp2633
sg21
(dp2634
sg86
g2
(g87
g4
NtRp2635
sg23
(dp2636
sg25
(lp2637
sg91
Nsg17
Nsg92
F0.98999999999999999
sg93
Nsg94
g2
(g87
g4
NtRp2638
sg31
I01
sg96
F0.001
sg97
g2
(g28
g4
NtRp2639
sg38
I00
sg45
I00
sg50
(dp2640
sg100
I01
sg101
Nsg52
S'batch_normalization_48'
p2641
sg55
Nsg71
(lp2642
sg104
Nsbag2
(g105
g4
NtRp2643
(dp2644
g18
(lp2645
sg7
(lp2646
sg52
S'activation_48'
p2647
sg9
I01
sg43
g111
sg10
(lp2648
sg55
Nsg21
(dp2649
sg23
(dp2650
sg25
(lp2651
sg71
(lp2652
sg31
I01
sg45
I00
sg15
(lp2653
sg50
(dp2654
sg17
Nsbag2
(g3
g4
NtRp2655
(dp2656
g7
(lp2657
sg9
I00
sg10
(lp2658
sg12
I2
sg13
I192
sg14
I00
sg15
(lp2659
sg17
Nsg18
(lp2660
sg20
Nsg21
(dp2661
sg23
(dp2662
sg25
(lp2663
sg27
g2
(g28
g4
NtRp2664
sg30
Nsg31
I01
sg32
g2
(g33
g4
NtRp2665
(dp2666
g36
S'uniform'
p2667
sg38
F1
sg39
Nsg40
S'fan_avg'
p2668
sbsg42
Nsg43
g44
sg45
I00
sg46
S'same'
p2669
sg48
g134
sg50
(dp2670
sg52
S'conv2d_49'
p2671
sg54
Nsg55
g2
(g56
g4
NtRp2672
(dp2673
g59
I4
sg60
Nsg61
Nsg62
(dp2674
sg64
Nsg65
Nsbsg66
S'channels_last'
p2675
sg68
g69
sg70
Nsg71
(lp2676
sg73
(I1
I7
tp2677
sbag2
(g75
g4
NtRp2678
(dp2679
g7
(lp2680
sg9
I01
sg10
(lp2681
sg15
(lp2682
sg81
I3
sg18
(lp2683
sg83
g2
(g28
g4
NtRp2684
sg21
(dp2685
sg86
g2
(g87
g4
NtRp2686
sg23
(dp2687
sg25
(lp2688
sg91
Nsg17
Nsg92
F0.98999999999999999
sg93
Nsg94
g2
(g87
g4
NtRp2689
sg31
I01
sg96
F0.001
sg97
g2
(g28
g4
NtRp2690
sg38
I00
sg45
I00
sg50
(dp2691
sg100
I01
sg101
Nsg52
S'batch_normalization_49'
p2692
sg55
Nsg71
(lp2693
sg104
Nsbag2
(g105
g4
NtRp2694
(dp2695
g18
(lp2696
sg7
(lp2697
sg52
S'activation_49'
p2698
sg9
I01
sg43
g111
sg10
(lp2699
sg55
Nsg21
(dp2700
sg23
(dp2701
sg25
(lp2702
sg71
(lp2703
sg31
I01
sg45
I00
sg15
(lp2704
sg50
(dp2705
sg17
Nsbag2
(g670
g4
NtRp2706
(dp2707
g46
S'same'
p2708
sg18
(lp2709
sg7
(lp2710
sg52
S'average_pooling2d_5'
p2711
sg48
(I1
I1
tp2712
sg9
I00
sg10
(lp2713
sg55
g2
(g56
g4
NtRp2714
(dp2715
g59
I4
sg60
Nsg61
Nsg62
(dp2716
sg64
Nsg65
Nsbsg66
S'channels_last'
p2717
sg21
(dp2718
sg23
(dp2719
sg25
(lp2720
sg71
(lp2721
sg239
(I3
I3
tp2722
sg31
I01
sg45
I00
sg15
(lp2723
sg50
(dp2724
sg17
Nsbag2
(g3
g4
NtRp2725
(dp2726
g7
(lp2727
sg9
I00
sg10
(lp2728
sg12
I2
sg13
I192
sg14
I00
sg15
(lp2729
sg17
Nsg18
(lp2730
sg20
Nsg21
(dp2731
sg23
(dp2732
sg25
(lp2733
sg27
g2
(g28
g4
NtRp2734
sg30
Nsg31
I01
sg32
g2
(g33
g4
NtRp2735
(dp2736
g36
S'uniform'
p2737
sg38
F1
sg39
Nsg40
S'fan_avg'
p2738
sbsg42
Nsg43
g44
sg45
I00
sg46
S'same'
p2739
sg48
g134
sg50
(dp2740
sg52
S'conv2d_50'
p2741
sg54
Nsg55
g2
(g56
g4
NtRp2742
(dp2743
g59
I4
sg60
Nsg61
Nsg62
(dp2744
sg64
Nsg65
Nsbsg66
S'channels_last'
p2745
sg68
g69
sg70
Nsg71
(lp2746
sg73
(I1
I1
tp2747
sbag2
(g75
g4
NtRp2748
(dp2749
g7
(lp2750
sg9
I01
sg10
(lp2751
sg15
(lp2752
sg81
I3
sg18
(lp2753
sg83
g2
(g28
g4
NtRp2754
sg21
(dp2755
sg86
g2
(g87
g4
NtRp2756
sg23
(dp2757
sg25
(lp2758
sg91
Nsg17
Nsg92
F0.98999999999999999
sg93
Nsg94
g2
(g87
g4
NtRp2759
sg31
I01
sg96
F0.001
sg97
g2
(g28
g4
NtRp2760
sg38
I00
sg45
I00
sg50
(dp2761
sg100
I01
sg101
Nsg52
S'batch_normalization_50'
p2762
sg55
Nsg71
(lp2763
sg104
Nsbag2
(g105
g4
NtRp2764
(dp2765
g18
(lp2766
sg7
(lp2767
sg52
S'activation_50'
p2768
sg9
I01
sg43
g111
sg10
(lp2769
sg55
Nsg21
(dp2770
sg23
(dp2771
sg25
(lp2772
sg71
(lp2773
sg31
I01
sg45
I00
sg15
(lp2774
sg50
(dp2775
sg17
Nsbag2
(g3
g4
NtRp2776
(dp2777
g7
(lp2778
sg9
I00
sg10
(lp2779
sg12
I2
sg13
I192
sg14
I00
sg15
(lp2780
sg17
Nsg18
(lp2781
sg20
Nsg21
(dp2782
sg23
(dp2783
sg25
(lp2784
sg27
g2
(g28
g4
NtRp2785
sg30
Nsg31
I01
sg32
g2
(g33
g4
NtRp2786
(dp2787
g36
S'uniform'
p2788
sg38
F1
sg39
Nsg40
S'fan_avg'
p2789
sbsg42
Nsg43
g44
sg45
I00
sg46
S'same'
p2790
sg48
g134
sg50
(dp2791
sg52
S'conv2d_51'
p2792
sg54
Nsg55
g2
(g56
g4
NtRp2793
(dp2794
g59
I4
sg60
Nsg61
Nsg62
(dp2795
sg64
Nsg65
Nsbsg66
S'channels_last'
p2796
sg68
g69
sg70
Nsg71
(lp2797
sg73
(I1
I1
tp2798
sbag2
(g75
g4
NtRp2799
(dp2800
g7
(lp2801
sg9
I01
sg10
(lp2802
sg15
(lp2803
sg81
I3
sg18
(lp2804
sg83
g2
(g28
g4
NtRp2805
sg21
(dp2806
sg86
g2
(g87
g4
NtRp2807
sg23
(dp2808
sg25
(lp2809
sg91
Nsg17
Nsg92
F0.98999999999999999
sg93
Nsg94
g2
(g87
g4
NtRp2810
sg31
I01
sg96
F0.001
sg97
g2
(g28
g4
NtRp2811
sg38
I00
sg45
I00
sg50
(dp2812
sg100
I01
sg101
Nsg52
S'batch_normalization_51'
p2813
sg55
Nsg71
(lp2814
sg104
Nsbag2
(g105
g4
NtRp2815
(dp2816
g18
(lp2817
sg7
(lp2818
sg52
S'activation_51'
p2819
sg9
I01
sg43
g111
sg10
(lp2820
sg55
Nsg21
(dp2821
sg23
(dp2822
sg25
(lp2823
sg71
(lp2824
sg31
I01
sg45
I00
sg15
(lp2825
sg50
(dp2826
sg17
Nsbag2
(g3
g4
NtRp2827
(dp2828
g7
(lp2829
sg9
I00
sg10
(lp2830
sg12
I2
sg13
I160
sg14
I00
sg15
(lp2831
sg17
Nsg18
(lp2832
sg20
Nsg21
(dp2833
sg23
(dp2834
sg25
(lp2835
sg27
g2
(g28
g4
NtRp2836
sg30
Nsg31
I01
sg32
g2
(g33
g4
NtRp2837
(dp2838
g36
S'uniform'
p2839
sg38
F1
sg39
Nsg40
S'fan_avg'
p2840
sbsg42
Nsg43
g44
sg45
I00
sg46
S'same'
p2841
sg48
g134
sg50
(dp2842
sg52
S'conv2d_52'
p2843
sg54
Nsg55
g2
(g56
g4
NtRp2844
(dp2845
g59
I4
sg60
Nsg61
Nsg62
(dp2846
sg64
Nsg65
Nsbsg66
S'channels_last'
p2847
sg68
g69
sg70
Nsg71
(lp2848
sg73
(I1
I1
tp2849
sbag2
(g75
g4
NtRp2850
(dp2851
g7
(lp2852
sg9
I01
sg10
(lp2853
sg15
(lp2854
sg81
I3
sg18
(lp2855
sg83
g2
(g28
g4
NtRp2856
sg21
(dp2857
sg86
g2
(g87
g4
NtRp2858
sg23
(dp2859
sg25
(lp2860
sg91
Nsg17
Nsg92
F0.98999999999999999
sg93
Nsg94
g2
(g87
g4
NtRp2861
sg31
I01
sg96
F0.001
sg97
g2
(g28
g4
NtRp2862
sg38
I00
sg45
I00
sg50
(dp2863
sg100
I01
sg101
Nsg52
S'batch_normalization_52'
p2864
sg55
Nsg71
(lp2865
sg104
Nsbag2
(g105
g4
NtRp2866
(dp2867
g18
(lp2868
sg7
(lp2869
sg52
S'activation_52'
p2870
sg9
I01
sg43
g111
sg10
(lp2871
sg55
Nsg21
(dp2872
sg23
(dp2873
sg25
(lp2874
sg71
(lp2875
sg31
I01
sg45
I00
sg15
(lp2876
sg50
(dp2877
sg17
Nsbag2
(g3
g4
NtRp2878
(dp2879
g7
(lp2880
sg9
I00
sg10
(lp2881
sg12
I2
sg13
I160
sg14
I00
sg15
(lp2882
sg17
Nsg18
(lp2883
sg20
Nsg21
(dp2884
sg23
(dp2885
sg25
(lp2886
sg27
g2
(g28
g4
NtRp2887
sg30
Nsg31
I01
sg32
g2
(g33
g4
NtRp2888
(dp2889
g36
S'uniform'
p2890
sg38
F1
sg39
Nsg40
S'fan_avg'
p2891
sbsg42
Nsg43
g44
sg45
I00
sg46
S'same'
p2892
sg48
g134
sg50
(dp2893
sg52
S'conv2d_53'
p2894
sg54
Nsg55
g2
(g56
g4
NtRp2895
(dp2896
g59
I4
sg60
Nsg61
Nsg62
(dp2897
sg64
Nsg65
Nsbsg66
S'channels_last'
p2898
sg68
g69
sg70
Nsg71
(lp2899
sg73
(I1
I7
tp2900
sbag2
(g75
g4
NtRp2901
(dp2902
g7
(lp2903
sg9
I01
sg10
(lp2904
sg15
(lp2905
sg81
I3
sg18
(lp2906
sg83
g2
(g28
g4
NtRp2907
sg21
(dp2908
sg86
g2
(g87
g4
NtRp2909
sg23
(dp2910
sg25
(lp2911
sg91
Nsg17
Nsg92
F0.98999999999999999
sg93
Nsg94
g2
(g87
g4
NtRp2912
sg31
I01
sg96
F0.001
sg97
g2
(g28
g4
NtRp2913
sg38
I00
sg45
I00
sg50
(dp2914
sg100
I01
sg101
Nsg52
S'batch_normalization_53'
p2915
sg55
Nsg71
(lp2916
sg104
Nsbag2
(g105
g4
NtRp2917
(dp2918
g18
(lp2919
sg7
(lp2920
sg52
S'activation_53'
p2921
sg9
I01
sg43
g111
sg10
(lp2922
sg55
Nsg21
(dp2923
sg23
(dp2924
sg25
(lp2925
sg71
(lp2926
sg31
I01
sg45
I00
sg15
(lp2927
sg50
(dp2928
sg17
Nsbag2
(g3
g4
NtRp2929
(dp2930
g7
(lp2931
sg9
I00
sg10
(lp2932
sg12
I2
sg13
I192
sg14
I00
sg15
(lp2933
sg17
Nsg18
(lp2934
sg20
Nsg21
(dp2935
sg23
(dp2936
sg25
(lp2937
sg27
g2
(g28
g4
NtRp2938
sg30
Nsg31
I01
sg32
g2
(g33
g4
NtRp2939
(dp2940
g36
S'uniform'
p2941
sg38
F1
sg39
Nsg40
S'fan_avg'
p2942
sbsg42
Nsg43
g44
sg45
I00
sg46
S'same'
p2943
sg48
g134
sg50
(dp2944
sg52
S'conv2d_54'
p2945
sg54
Nsg55
g2
(g56
g4
NtRp2946
(dp2947
g59
I4
sg60
Nsg61
Nsg62
(dp2948
sg64
Nsg65
Nsbsg66
S'channels_last'
p2949
sg68
g69
sg70
Nsg71
(lp2950
sg73
(I7
I1
tp2951
sbag2
(g75
g4
NtRp2952
(dp2953
g7
(lp2954
sg9
I01
sg10
(lp2955
sg15
(lp2956
sg81
I3
sg18
(lp2957
sg83
g2
(g28
g4
NtRp2958
sg21
(dp2959
sg86
g2
(g87
g4
NtRp2960
sg23
(dp2961
sg25
(lp2962
sg91
Nsg17
Nsg92
F0.98999999999999999
sg93
Nsg94
g2
(g87
g4
NtRp2963
sg31
I01
sg96
F0.001
sg97
g2
(g28
g4
NtRp2964
sg38
I00
sg45
I00
sg50
(dp2965
sg100
I01
sg101
Nsg52
S'batch_normalization_54'
p2966
sg55
Nsg71
(lp2967
sg104
Nsbag2
(g105
g4
NtRp2968
(dp2969
g18
(lp2970
sg7
(lp2971
sg52
S'activation_54'
p2972
sg9
I01
sg43
g111
sg10
(lp2973
sg55
Nsg21
(dp2974
sg23
(dp2975
sg25
(lp2976
sg71
(lp2977
sg31
I01
sg45
I00
sg15
(lp2978
sg50
(dp2979
sg17
Nsbag2
(g3
g4
NtRp2980
(dp2981
g7
(lp2982
sg9
I00
sg10
(lp2983
sg12
I2
sg13
I160
sg14
I00
sg15
(lp2984
sg17
Nsg18
(lp2985
sg20
Nsg21
(dp2986
sg23
(dp2987
sg25
(lp2988
sg27
g2
(g28
g4
NtRp2989
sg30
Nsg31
I01
sg32
g2
(g33
g4
NtRp2990
(dp2991
g36
S'uniform'
p2992
sg38
F1
sg39
Nsg40
S'fan_avg'
p2993
sbsg42
Nsg43
g44
sg45
I00
sg46
S'same'
p2994
sg48
g134
sg50
(dp2995
sg52
S'conv2d_55'
p2996
sg54
Nsg55
g2
(g56
g4
NtRp2997
(dp2998
g59
I4
sg60
Nsg61
Nsg62
(dp2999
sg64
Nsg65
Nsbsg66
S'channels_last'
p3000
sg68
g69
sg70
Nsg71
(lp3001
sg73
(I1
I1
tp3002
sbag2
(g75
g4
NtRp3003
(dp3004
g7
(lp3005
sg9
I01
sg10
(lp3006
sg15
(lp3007
sg81
I3
sg18
(lp3008
sg83
g2
(g28
g4
NtRp3009
sg21
(dp3010
sg86
g2
(g87
g4
NtRp3011
sg23
(dp3012
sg25
(lp3013
sg91
Nsg17
Nsg92
F0.98999999999999999
sg93
Nsg94
g2
(g87
g4
NtRp3014
sg31
I01
sg96
F0.001
sg97
g2
(g28
g4
NtRp3015
sg38
I00
sg45
I00
sg50
(dp3016
sg100
I01
sg101
Nsg52
S'batch_normalization_55'
p3017
sg55
Nsg71
(lp3018
sg104
Nsbag2
(g105
g4
NtRp3019
(dp3020
g18
(lp3021
sg7
(lp3022
sg52
S'activation_55'
p3023
sg9
I01
sg43
g111
sg10
(lp3024
sg55
Nsg21
(dp3025
sg23
(dp3026
sg25
(lp3027
sg71
(lp3028
sg31
I01
sg45
I00
sg15
(lp3029
sg50
(dp3030
sg17
Nsbag2
(g3
g4
NtRp3031
(dp3032
g7
(lp3033
sg9
I00
sg10
(lp3034
sg12
I2
sg13
I160
sg14
I00
sg15
(lp3035
sg17
Nsg18
(lp3036
sg20
Nsg21
(dp3037
sg23
(dp3038
sg25
(lp3039
sg27
g2
(g28
g4
NtRp3040
sg30
Nsg31
I01
sg32
g2
(g33
g4
NtRp3041
(dp3042
g36
S'uniform'
p3043
sg38
F1
sg39
Nsg40
S'fan_avg'
p3044
sbsg42
Nsg43
g44
sg45
I00
sg46
S'same'
p3045
sg48
g134
sg50
(dp3046
sg52
S'conv2d_56'
p3047
sg54
Nsg55
g2
(g56
g4
NtRp3048
(dp3049
g59
I4
sg60
Nsg61
Nsg62
(dp3050
sg64
Nsg65
Nsbsg66
S'channels_last'
p3051
sg68
g69
sg70
Nsg71
(lp3052
sg73
(I7
I1
tp3053
sbag2
(g75
g4
NtRp3054
(dp3055
g7
(lp3056
sg9
I01
sg10
(lp3057
sg15
(lp3058
sg81
I3
sg18
(lp3059
sg83
g2
(g28
g4
NtRp3060
sg21
(dp3061
sg86
g2
(g87
g4
NtRp3062
sg23
(dp3063
sg25
(lp3064
sg91
Nsg17
Nsg92
F0.98999999999999999
sg93
Nsg94
g2
(g87
g4
NtRp3065
sg31
I01
sg96
F0.001
sg97
g2
(g28
g4
NtRp3066
sg38
I00
sg45
I00
sg50
(dp3067
sg100
I01
sg101
Nsg52
S'batch_normalization_56'
p3068
sg55
Nsg71
(lp3069
sg104
Nsbag2
(g105
g4
NtRp3070
(dp3071
g18
(lp3072
sg7
(lp3073
sg52
S'activation_56'
p3074
sg9
I01
sg43
g111
sg10
(lp3075
sg55
Nsg21
(dp3076
sg23
(dp3077
sg25
(lp3078
sg71
(lp3079
sg31
I01
sg45
I00
sg15
(lp3080
sg50
(dp3081
sg17
Nsbag2
(g3
g4
NtRp3082
(dp3083
g7
(lp3084
sg9
I00
sg10
(lp3085
sg12
I2
sg13
I160
sg14
I00
sg15
(lp3086
sg17
Nsg18
(lp3087
sg20
Nsg21
(dp3088
sg23
(dp3089
sg25
(lp3090
sg27
g2
(g28
g4
NtRp3091
sg30
Nsg31
I01
sg32
g2
(g33
g4
NtRp3092
(dp3093
g36
S'uniform'
p3094
sg38
F1
sg39
Nsg40
S'fan_avg'
p3095
sbsg42
Nsg43
g44
sg45
I00
sg46
S'same'
p3096
sg48
g134
sg50
(dp3097
sg52
S'conv2d_57'
p3098
sg54
Nsg55
g2
(g56
g4
NtRp3099
(dp3100
g59
I4
sg60
Nsg61
Nsg62
(dp3101
sg64
Nsg65
Nsbsg66
S'channels_last'
p3102
sg68
g69
sg70
Nsg71
(lp3103
sg73
(I1
I7
tp3104
sbag2
(g75
g4
NtRp3105
(dp3106
g7
(lp3107
sg9
I01
sg10
(lp3108
sg15
(lp3109
sg81
I3
sg18
(lp3110
sg83
g2
(g28
g4
NtRp3111
sg21
(dp3112
sg86
g2
(g87
g4
NtRp3113
sg23
(dp3114
sg25
(lp3115
sg91
Nsg17
Nsg92
F0.98999999999999999
sg93
Nsg94
g2
(g87
g4
NtRp3116
sg31
I01
sg96
F0.001
sg97
g2
(g28
g4
NtRp3117
sg38
I00
sg45
I00
sg50
(dp3118
sg100
I01
sg101
Nsg52
S'batch_normalization_57'
p3119
sg55
Nsg71
(lp3120
sg104
Nsbag2
(g105
g4
NtRp3121
(dp3122
g18
(lp3123
sg7
(lp3124
sg52
S'activation_57'
p3125
sg9
I01
sg43
g111
sg10
(lp3126
sg55
Nsg21
(dp3127
sg23
(dp3128
sg25
(lp3129
sg71
(lp3130
sg31
I01
sg45
I00
sg15
(lp3131
sg50
(dp3132
sg17
Nsbag2
(g3
g4
NtRp3133
(dp3134
g7
(lp3135
sg9
I00
sg10
(lp3136
sg12
I2
sg13
I160
sg14
I00
sg15
(lp3137
sg17
Nsg18
(lp3138
sg20
Nsg21
(dp3139
sg23
(dp3140
sg25
(lp3141
sg27
g2
(g28
g4
NtRp3142
sg30
Nsg31
I01
sg32
g2
(g33
g4
NtRp3143
(dp3144
g36
S'uniform'
p3145
sg38
F1
sg39
Nsg40
S'fan_avg'
p3146
sbsg42
Nsg43
g44
sg45
I00
sg46
S'same'
p3147
sg48
g134
sg50
(dp3148
sg52
S'conv2d_58'
p3149
sg54
Nsg55
g2
(g56
g4
NtRp3150
(dp3151
g59
I4
sg60
Nsg61
Nsg62
(dp3152
sg64
Nsg65
Nsbsg66
S'channels_last'
p3153
sg68
g69
sg70
Nsg71
(lp3154
sg73
(I7
I1
tp3155
sbag2
(g75
g4
NtRp3156
(dp3157
g7
(lp3158
sg9
I01
sg10
(lp3159
sg15
(lp3160
sg81
I3
sg18
(lp3161
sg83
g2
(g28
g4
NtRp3162
sg21
(dp3163
sg86
g2
(g87
g4
NtRp3164
sg23
(dp3165
sg25
(lp3166
sg91
Nsg17
Nsg92
F0.98999999999999999
sg93
Nsg94
g2
(g87
g4
NtRp3167
sg31
I01
sg96
F0.001
sg97
g2
(g28
g4
NtRp3168
sg38
I00
sg45
I00
sg50
(dp3169
sg100
I01
sg101
Nsg52
S'batch_normalization_58'
p3170
sg55
Nsg71
(lp3171
sg104
Nsbag2
(g105
g4
NtRp3172
(dp3173
g18
(lp3174
sg7
(lp3175
sg52
S'activation_58'
p3176
sg9
I01
sg43
g111
sg10
(lp3177
sg55
Nsg21
(dp3178
sg23
(dp3179
sg25
(lp3180
sg71
(lp3181
sg31
I01
sg45
I00
sg15
(lp3182
sg50
(dp3183
sg17
Nsbag2
(g3
g4
NtRp3184
(dp3185
g7
(lp3186
sg9
I00
sg10
(lp3187
sg12
I2
sg13
I192
sg14
I00
sg15
(lp3188
sg17
Nsg18
(lp3189
sg20
Nsg21
(dp3190
sg23
(dp3191
sg25
(lp3192
sg27
g2
(g28
g4
NtRp3193
sg30
Nsg31
I01
sg32
g2
(g33
g4
NtRp3194
(dp3195
g36
S'uniform'
p3196
sg38
F1
sg39
Nsg40
S'fan_avg'
p3197
sbsg42
Nsg43
g44
sg45
I00
sg46
S'same'
p3198
sg48
g134
sg50
(dp3199
sg52
S'conv2d_59'
p3200
sg54
Nsg55
g2
(g56
g4
NtRp3201
(dp3202
g59
I4
sg60
Nsg61
Nsg62
(dp3203
sg64
Nsg65
Nsbsg66
S'channels_last'
p3204
sg68
g69
sg70
Nsg71
(lp3205
sg73
(I1
I7
tp3206
sbag2
(g75
g4
NtRp3207
(dp3208
g7
(lp3209
sg9
I01
sg10
(lp3210
sg15
(lp3211
sg81
I3
sg18
(lp3212
sg83
g2
(g28
g4
NtRp3213
sg21
(dp3214
sg86
g2
(g87
g4
NtRp3215
sg23
(dp3216
sg25
(lp3217
sg91
Nsg17
Nsg92
F0.98999999999999999
sg93
Nsg94
g2
(g87
g4
NtRp3218
sg31
I01
sg96
F0.001
sg97
g2
(g28
g4
NtRp3219
sg38
I00
sg45
I00
sg50
(dp3220
sg100
I01
sg101
Nsg52
S'batch_normalization_59'
p3221
sg55
Nsg71
(lp3222
sg104
Nsbag2
(g105
g4
NtRp3223
(dp3224
g18
(lp3225
sg7
(lp3226
sg52
S'activation_59'
p3227
sg9
I01
sg43
g111
sg10
(lp3228
sg55
Nsg21
(dp3229
sg23
(dp3230
sg25
(lp3231
sg71
(lp3232
sg31
I01
sg45
I00
sg15
(lp3233
sg50
(dp3234
sg17
Nsbag2
(g670
g4
NtRp3235
(dp3236
g46
S'same'
p3237
sg18
(lp3238
sg7
(lp3239
sg52
S'average_pooling2d_6'
p3240
sg48
g2712
sg9
I00
sg10
(lp3241
sg55
g2
(g56
g4
NtRp3242
(dp3243
g59
I4
sg60
Nsg61
Nsg62
(dp3244
sg64
Nsg65
Nsbsg66
S'channels_last'
p3245
sg21
(dp3246
sg23
(dp3247
sg25
(lp3248
sg71
(lp3249
sg239
g2722
sg31
I01
sg45
I00
sg15
(lp3250
sg50
(dp3251
sg17
Nsbag2
(g3
g4
NtRp3252
(dp3253
g7
(lp3254
sg9
I00
sg10
(lp3255
sg12
I2
sg13
I192
sg14
I00
sg15
(lp3256
sg17
Nsg18
(lp3257
sg20
Nsg21
(dp3258
sg23
(dp3259
sg25
(lp3260
sg27
g2
(g28
g4
NtRp3261
sg30
Nsg31
I01
sg32
g2
(g33
g4
NtRp3262
(dp3263
g36
S'uniform'
p3264
sg38
F1
sg39
Nsg40
S'fan_avg'
p3265
sbsg42
Nsg43
g44
sg45
I00
sg46
S'same'
p3266
sg48
g134
sg50
(dp3267
sg52
S'conv2d_60'
p3268
sg54
Nsg55
g2
(g56
g4
NtRp3269
(dp3270
g59
I4
sg60
Nsg61
Nsg62
(dp3271
sg64
Nsg65
Nsbsg66
S'channels_last'
p3272
sg68
g69
sg70
Nsg71
(lp3273
sg73
(I1
I1
tp3274
sbag2
(g75
g4
NtRp3275
(dp3276
g7
(lp3277
sg9
I01
sg10
(lp3278
sg15
(lp3279
sg81
I3
sg18
(lp3280
sg83
g2
(g28
g4
NtRp3281
sg21
(dp3282
sg86
g2
(g87
g4
NtRp3283
sg23
(dp3284
sg25
(lp3285
sg91
Nsg17
Nsg92
F0.98999999999999999
sg93
Nsg94
g2
(g87
g4
NtRp3286
sg31
I01
sg96
F0.001
sg97
g2
(g28
g4
NtRp3287
sg38
I00
sg45
I00
sg50
(dp3288
sg100
I01
sg101
Nsg52
S'batch_normalization_60'
p3289
sg55
Nsg71
(lp3290
sg104
Nsbag2
(g105
g4
NtRp3291
(dp3292
g18
(lp3293
sg7
(lp3294
sg52
S'activation_60'
p3295
sg9
I01
sg43
g111
sg10
(lp3296
sg55
Nsg21
(dp3297
sg23
(dp3298
sg25
(lp3299
sg71
(lp3300
sg31
I01
sg45
I00
sg15
(lp3301
sg50
(dp3302
sg17
Nsbag2
(g3
g4
NtRp3303
(dp3304
g7
(lp3305
sg9
I00
sg10
(lp3306
sg12
I2
sg13
I192
sg14
I00
sg15
(lp3307
sg17
Nsg18
(lp3308
sg20
Nsg21
(dp3309
sg23
(dp3310
sg25
(lp3311
sg27
g2
(g28
g4
NtRp3312
sg30
Nsg31
I01
sg32
g2
(g33
g4
NtRp3313
(dp3314
g36
S'uniform'
p3315
sg38
F1
sg39
Nsg40
S'fan_avg'
p3316
sbsg42
Nsg43
g44
sg45
I00
sg46
S'same'
p3317
sg48
g134
sg50
(dp3318
sg52
S'conv2d_61'
p3319
sg54
Nsg55
g2
(g56
g4
NtRp3320
(dp3321
g59
I4
sg60
Nsg61
Nsg62
(dp3322
sg64
Nsg65
Nsbsg66
S'channels_last'
p3323
sg68
g69
sg70
Nsg71
(lp3324
sg73
(I1
I1
tp3325
sbag2
(g75
g4
NtRp3326
(dp3327
g7
(lp3328
sg9
I01
sg10
(lp3329
sg15
(lp3330
sg81
I3
sg18
(lp3331
sg83
g2
(g28
g4
NtRp3332
sg21
(dp3333
sg86
g2
(g87
g4
NtRp3334
sg23
(dp3335
sg25
(lp3336
sg91
Nsg17
Nsg92
F0.98999999999999999
sg93
Nsg94
g2
(g87
g4
NtRp3337
sg31
I01
sg96
F0.001
sg97
g2
(g28
g4
NtRp3338
sg38
I00
sg45
I00
sg50
(dp3339
sg100
I01
sg101
Nsg52
S'batch_normalization_61'
p3340
sg55
Nsg71
(lp3341
sg104
Nsbag2
(g105
g4
NtRp3342
(dp3343
g18
(lp3344
sg7
(lp3345
sg52
S'activation_61'
p3346
sg9
I01
sg43
g111
sg10
(lp3347
sg55
Nsg21
(dp3348
sg23
(dp3349
sg25
(lp3350
sg71
(lp3351
sg31
I01
sg45
I00
sg15
(lp3352
sg50
(dp3353
sg17
Nsbag2
(g3
g4
NtRp3354
(dp3355
g7
(lp3356
sg9
I00
sg10
(lp3357
sg12
I2
sg13
I192
sg14
I00
sg15
(lp3358
sg17
Nsg18
(lp3359
sg20
Nsg21
(dp3360
sg23
(dp3361
sg25
(lp3362
sg27
g2
(g28
g4
NtRp3363
sg30
Nsg31
I01
sg32
g2
(g33
g4
NtRp3364
(dp3365
g36
S'uniform'
p3366
sg38
F1
sg39
Nsg40
S'fan_avg'
p3367
sbsg42
Nsg43
g44
sg45
I00
sg46
S'same'
p3368
sg48
g134
sg50
(dp3369
sg52
S'conv2d_62'
p3370
sg54
Nsg55
g2
(g56
g4
NtRp3371
(dp3372
g59
I4
sg60
Nsg61
Nsg62
(dp3373
sg64
Nsg65
Nsbsg66
S'channels_last'
p3374
sg68
g69
sg70
Nsg71
(lp3375
sg73
(I1
I1
tp3376
sbag2
(g75
g4
NtRp3377
(dp3378
g7
(lp3379
sg9
I01
sg10
(lp3380
sg15
(lp3381
sg81
I3
sg18
(lp3382
sg83
g2
(g28
g4
NtRp3383
sg21
(dp3384
sg86
g2
(g87
g4
NtRp3385
sg23
(dp3386
sg25
(lp3387
sg91
Nsg17
Nsg92
F0.98999999999999999
sg93
Nsg94
g2
(g87
g4
NtRp3388
sg31
I01
sg96
F0.001
sg97
g2
(g28
g4
NtRp3389
sg38
I00
sg45
I00
sg50
(dp3390
sg100
I01
sg101
Nsg52
S'batch_normalization_62'
p3391
sg55
Nsg71
(lp3392
sg104
Nsbag2
(g105
g4
NtRp3393
(dp3394
g18
(lp3395
sg7
(lp3396
sg52
S'activation_62'
p3397
sg9
I01
sg43
g111
sg10
(lp3398
sg55
Nsg21
(dp3399
sg23
(dp3400
sg25
(lp3401
sg71
(lp3402
sg31
I01
sg45
I00
sg15
(lp3403
sg50
(dp3404
sg17
Nsbag2
(g3
g4
NtRp3405
(dp3406
g7
(lp3407
sg9
I00
sg10
(lp3408
sg12
I2
sg13
I192
sg14
I00
sg15
(lp3409
sg17
Nsg18
(lp3410
sg20
Nsg21
(dp3411
sg23
(dp3412
sg25
(lp3413
sg27
g2
(g28
g4
NtRp3414
sg30
Nsg31
I01
sg32
g2
(g33
g4
NtRp3415
(dp3416
g36
S'uniform'
p3417
sg38
F1
sg39
Nsg40
S'fan_avg'
p3418
sbsg42
Nsg43
g44
sg45
I00
sg46
S'same'
p3419
sg48
g134
sg50
(dp3420
sg52
S'conv2d_63'
p3421
sg54
Nsg55
g2
(g56
g4
NtRp3422
(dp3423
g59
I4
sg60
Nsg61
Nsg62
(dp3424
sg64
Nsg65
Nsbsg66
S'channels_last'
p3425
sg68
g69
sg70
Nsg71
(lp3426
sg73
(I1
I7
tp3427
sbag2
(g75
g4
NtRp3428
(dp3429
g7
(lp3430
sg9
I01
sg10
(lp3431
sg15
(lp3432
sg81
I3
sg18
(lp3433
sg83
g2
(g28
g4
NtRp3434
sg21
(dp3435
sg86
g2
(g87
g4
NtRp3436
sg23
(dp3437
sg25
(lp3438
sg91
Nsg17
Nsg92
F0.98999999999999999
sg93
Nsg94
g2
(g87
g4
NtRp3439
sg31
I01
sg96
F0.001
sg97
g2
(g28
g4
NtRp3440
sg38
I00
sg45
I00
sg50
(dp3441
sg100
I01
sg101
Nsg52
S'batch_normalization_63'
p3442
sg55
Nsg71
(lp3443
sg104
Nsbag2
(g105
g4
NtRp3444
(dp3445
g18
(lp3446
sg7
(lp3447
sg52
S'activation_63'
p3448
sg9
I01
sg43
g111
sg10
(lp3449
sg55
Nsg21
(dp3450
sg23
(dp3451
sg25
(lp3452
sg71
(lp3453
sg31
I01
sg45
I00
sg15
(lp3454
sg50
(dp3455
sg17
Nsbag2
(g3
g4
NtRp3456
(dp3457
g7
(lp3458
sg9
I00
sg10
(lp3459
sg12
I2
sg13
I192
sg14
I00
sg15
(lp3460
sg17
Nsg18
(lp3461
sg20
Nsg21
(dp3462
sg23
(dp3463
sg25
(lp3464
sg27
g2
(g28
g4
NtRp3465
sg30
Nsg31
I01
sg32
g2
(g33
g4
NtRp3466
(dp3467
g36
S'uniform'
p3468
sg38
F1
sg39
Nsg40
S'fan_avg'
p3469
sbsg42
Nsg43
g44
sg45
I00
sg46
S'same'
p3470
sg48
g134
sg50
(dp3471
sg52
S'conv2d_64'
p3472
sg54
Nsg55
g2
(g56
g4
NtRp3473
(dp3474
g59
I4
sg60
Nsg61
Nsg62
(dp3475
sg64
Nsg65
Nsbsg66
S'channels_last'
p3476
sg68
g69
sg70
Nsg71
(lp3477
sg73
(I7
I1
tp3478
sbag2
(g75
g4
NtRp3479
(dp3480
g7
(lp3481
sg9
I01
sg10
(lp3482
sg15
(lp3483
sg81
I3
sg18
(lp3484
sg83
g2
(g28
g4
NtRp3485
sg21
(dp3486
sg86
g2
(g87
g4
NtRp3487
sg23
(dp3488
sg25
(lp3489
sg91
Nsg17
Nsg92
F0.98999999999999999
sg93
Nsg94
g2
(g87
g4
NtRp3490
sg31
I01
sg96
F0.001
sg97
g2
(g28
g4
NtRp3491
sg38
I00
sg45
I00
sg50
(dp3492
sg100
I01
sg101
Nsg52
S'batch_normalization_64'
p3493
sg55
Nsg71
(lp3494
sg104
Nsbag2
(g105
g4
NtRp3495
(dp3496
g18
(lp3497
sg7
(lp3498
sg52
S'activation_64'
p3499
sg9
I01
sg43
g111
sg10
(lp3500
sg55
Nsg21
(dp3501
sg23
(dp3502
sg25
(lp3503
sg71
(lp3504
sg31
I01
sg45
I00
sg15
(lp3505
sg50
(dp3506
sg17
Nsbag2
(g3
g4
NtRp3507
(dp3508
g7
(lp3509
sg9
I00
sg10
(lp3510
sg12
I2
sg13
I192
sg14
I00
sg15
(lp3511
sg17
Nsg18
(lp3512
sg20
Nsg21
(dp3513
sg23
(dp3514
sg25
(lp3515
sg27
g2
(g28
g4
NtRp3516
sg30
Nsg31
I01
sg32
g2
(g33
g4
NtRp3517
(dp3518
g36
S'uniform'
p3519
sg38
F1
sg39
Nsg40
S'fan_avg'
p3520
sbsg42
Nsg43
g44
sg45
I00
sg46
S'same'
p3521
sg48
g134
sg50
(dp3522
sg52
S'conv2d_65'
p3523
sg54
Nsg55
g2
(g56
g4
NtRp3524
(dp3525
g59
I4
sg60
Nsg61
Nsg62
(dp3526
sg64
Nsg65
Nsbsg66
S'channels_last'
p3527
sg68
g69
sg70
Nsg71
(lp3528
sg73
(I1
I1
tp3529
sbag2
(g75
g4
NtRp3530
(dp3531
g7
(lp3532
sg9
I01
sg10
(lp3533
sg15
(lp3534
sg81
I3
sg18
(lp3535
sg83
g2
(g28
g4
NtRp3536
sg21
(dp3537
sg86
g2
(g87
g4
NtRp3538
sg23
(dp3539
sg25
(lp3540
sg91
Nsg17
Nsg92
F0.98999999999999999
sg93
Nsg94
g2
(g87
g4
NtRp3541
sg31
I01
sg96
F0.001
sg97
g2
(g28
g4
NtRp3542
sg38
I00
sg45
I00
sg50
(dp3543
sg100
I01
sg101
Nsg52
S'batch_normalization_65'
p3544
sg55
Nsg71
(lp3545
sg104
Nsbag2
(g105
g4
NtRp3546
(dp3547
g18
(lp3548
sg7
(lp3549
sg52
S'activation_65'
p3550
sg9
I01
sg43
g111
sg10
(lp3551
sg55
Nsg21
(dp3552
sg23
(dp3553
sg25
(lp3554
sg71
(lp3555
sg31
I01
sg45
I00
sg15
(lp3556
sg50
(dp3557
sg17
Nsbag2
(g3
g4
NtRp3558
(dp3559
g7
(lp3560
sg9
I00
sg10
(lp3561
sg12
I2
sg13
I192
sg14
I00
sg15
(lp3562
sg17
Nsg18
(lp3563
sg20
Nsg21
(dp3564
sg23
(dp3565
sg25
(lp3566
sg27
g2
(g28
g4
NtRp3567
sg30
Nsg31
I01
sg32
g2
(g33
g4
NtRp3568
(dp3569
g36
S'uniform'
p3570
sg38
F1
sg39
Nsg40
S'fan_avg'
p3571
sbsg42
Nsg43
g44
sg45
I00
sg46
S'same'
p3572
sg48
g134
sg50
(dp3573
sg52
S'conv2d_66'
p3574
sg54
Nsg55
g2
(g56
g4
NtRp3575
(dp3576
g59
I4
sg60
Nsg61
Nsg62
(dp3577
sg64
Nsg65
Nsbsg66
S'channels_last'
p3578
sg68
g69
sg70
Nsg71
(lp3579
sg73
(I7
I1
tp3580
sbag2
(g75
g4
NtRp3581
(dp3582
g7
(lp3583
sg9
I01
sg10
(lp3584
sg15
(lp3585
sg81
I3
sg18
(lp3586
sg83
g2
(g28
g4
NtRp3587
sg21
(dp3588
sg86
g2
(g87
g4
NtRp3589
sg23
(dp3590
sg25
(lp3591
sg91
Nsg17
Nsg92
F0.98999999999999999
sg93
Nsg94
g2
(g87
g4
NtRp3592
sg31
I01
sg96
F0.001
sg97
g2
(g28
g4
NtRp3593
sg38
I00
sg45
I00
sg50
(dp3594
sg100
I01
sg101
Nsg52
S'batch_normalization_66'
p3595
sg55
Nsg71
(lp3596
sg104
Nsbag2
(g105
g4
NtRp3597
(dp3598
g18
(lp3599
sg7
(lp3600
sg52
S'activation_66'
p3601
sg9
I01
sg43
g111
sg10
(lp3602
sg55
Nsg21
(dp3603
sg23
(dp3604
sg25
(lp3605
sg71
(lp3606
sg31
I01
sg45
I00
sg15
(lp3607
sg50
(dp3608
sg17
Nsbag2
(g3
g4
NtRp3609
(dp3610
g7
(lp3611
sg9
I00
sg10
(lp3612
sg12
I2
sg13
I192
sg14
I00
sg15
(lp3613
sg17
Nsg18
(lp3614
sg20
Nsg21
(dp3615
sg23
(dp3616
sg25
(lp3617
sg27
g2
(g28
g4
NtRp3618
sg30
Nsg31
I01
sg32
g2
(g33
g4
NtRp3619
(dp3620
g36
S'uniform'
p3621
sg38
F1
sg39
Nsg40
S'fan_avg'
p3622
sbsg42
Nsg43
g44
sg45
I00
sg46
S'same'
p3623
sg48
g134
sg50
(dp3624
sg52
S'conv2d_67'
p3625
sg54
Nsg55
g2
(g56
g4
NtRp3626
(dp3627
g59
I4
sg60
Nsg61
Nsg62
(dp3628
sg64
Nsg65
Nsbsg66
S'channels_last'
p3629
sg68
g69
sg70
Nsg71
(lp3630
sg73
(I1
I7
tp3631
sbag2
(g75
g4
NtRp3632
(dp3633
g7
(lp3634
sg9
I01
sg10
(lp3635
sg15
(lp3636
sg81
I3
sg18
(lp3637
sg83
g2
(g28
g4
NtRp3638
sg21
(dp3639
sg86
g2
(g87
g4
NtRp3640
sg23
(dp3641
sg25
(lp3642
sg91
Nsg17
Nsg92
F0.98999999999999999
sg93
Nsg94
g2
(g87
g4
NtRp3643
sg31
I01
sg96
F0.001
sg97
g2
(g28
g4
NtRp3644
sg38
I00
sg45
I00
sg50
(dp3645
sg100
I01
sg101
Nsg52
S'batch_normalization_67'
p3646
sg55
Nsg71
(lp3647
sg104
Nsbag2
(g105
g4
NtRp3648
(dp3649
g18
(lp3650
sg7
(lp3651
sg52
S'activation_67'
p3652
sg9
I01
sg43
g111
sg10
(lp3653
sg55
Nsg21
(dp3654
sg23
(dp3655
sg25
(lp3656
sg71
(lp3657
sg31
I01
sg45
I00
sg15
(lp3658
sg50
(dp3659
sg17
Nsbag2
(g3
g4
NtRp3660
(dp3661
g7
(lp3662
sg9
I00
sg10
(lp3663
sg12
I2
sg13
I192
sg14
I00
sg15
(lp3664
sg17
Nsg18
(lp3665
sg20
Nsg21
(dp3666
sg23
(dp3667
sg25
(lp3668
sg27
g2
(g28
g4
NtRp3669
sg30
Nsg31
I01
sg32
g2
(g33
g4
NtRp3670
(dp3671
g36
S'uniform'
p3672
sg38
F1
sg39
Nsg40
S'fan_avg'
p3673
sbsg42
Nsg43
g44
sg45
I00
sg46
S'same'
p3674
sg48
g134
sg50
(dp3675
sg52
S'conv2d_68'
p3676
sg54
Nsg55
g2
(g56
g4
NtRp3677
(dp3678
g59
I4
sg60
Nsg61
Nsg62
(dp3679
sg64
Nsg65
Nsbsg66
S'channels_last'
p3680
sg68
g69
sg70
Nsg71
(lp3681
sg73
(I7
I1
tp3682
sbag2
(g75
g4
NtRp3683
(dp3684
g7
(lp3685
sg9
I01
sg10
(lp3686
sg15
(lp3687
sg81
I3
sg18
(lp3688
sg83
g2
(g28
g4
NtRp3689
sg21
(dp3690
sg86
g2
(g87
g4
NtRp3691
sg23
(dp3692
sg25
(lp3693
sg91
Nsg17
Nsg92
F0.98999999999999999
sg93
Nsg94
g2
(g87
g4
NtRp3694
sg31
I01
sg96
F0.001
sg97
g2
(g28
g4
NtRp3695
sg38
I00
sg45
I00
sg50
(dp3696
sg100
I01
sg101
Nsg52
S'batch_normalization_68'
p3697
sg55
Nsg71
(lp3698
sg104
Nsbag2
(g105
g4
NtRp3699
(dp3700
g18
(lp3701
sg7
(lp3702
sg52
S'activation_68'
p3703
sg9
I01
sg43
g111
sg10
(lp3704
sg55
Nsg21
(dp3705
sg23
(dp3706
sg25
(lp3707
sg71
(lp3708
sg31
I01
sg45
I00
sg15
(lp3709
sg50
(dp3710
sg17
Nsbag2
(g3
g4
NtRp3711
(dp3712
g7
(lp3713
sg9
I00
sg10
(lp3714
sg12
I2
sg13
I192
sg14
I00
sg15
(lp3715
sg17
Nsg18
(lp3716
sg20
Nsg21
(dp3717
sg23
(dp3718
sg25
(lp3719
sg27
g2
(g28
g4
NtRp3720
sg30
Nsg31
I01
sg32
g2
(g33
g4
NtRp3721
(dp3722
g36
S'uniform'
p3723
sg38
F1
sg39
Nsg40
S'fan_avg'
p3724
sbsg42
Nsg43
g44
sg45
I00
sg46
S'same'
p3725
sg48
g134
sg50
(dp3726
sg52
S'conv2d_69'
p3727
sg54
Nsg55
g2
(g56
g4
NtRp3728
(dp3729
g59
I4
sg60
Nsg61
Nsg62
(dp3730
sg64
Nsg65
Nsbsg66
S'channels_last'
p3731
sg68
g69
sg70
Nsg71
(lp3732
sg73
(I1
I7
tp3733
sbag2
(g75
g4
NtRp3734
(dp3735
g7
(lp3736
sg9
I01
sg10
(lp3737
sg15
(lp3738
sg81
I3
sg18
(lp3739
sg83
g2
(g28
g4
NtRp3740
sg21
(dp3741
sg86
g2
(g87
g4
NtRp3742
sg23
(dp3743
sg25
(lp3744
sg91
Nsg17
Nsg92
F0.98999999999999999
sg93
Nsg94
g2
(g87
g4
NtRp3745
sg31
I01
sg96
F0.001
sg97
g2
(g28
g4
NtRp3746
sg38
I00
sg45
I00
sg50
(dp3747
sg100
I01
sg101
Nsg52
S'batch_normalization_69'
p3748
sg55
Nsg71
(lp3749
sg104
Nsbag2
(g105
g4
NtRp3750
(dp3751
g18
(lp3752
sg7
(lp3753
sg52
S'activation_69'
p3754
sg9
I01
sg43
g111
sg10
(lp3755
sg55
Nsg21
(dp3756
sg23
(dp3757
sg25
(lp3758
sg71
(lp3759
sg31
I01
sg45
I00
sg15
(lp3760
sg50
(dp3761
sg17
Nsbag2
(g670
g4
NtRp3762
(dp3763
g46
S'same'
p3764
sg18
(lp3765
sg7
(lp3766
sg52
S'average_pooling2d_7'
p3767
sg48
(I1
I1
tp3768
sg9
I00
sg10
(lp3769
sg55
g2
(g56
g4
NtRp3770
(dp3771
g59
I4
sg60
Nsg61
Nsg62
(dp3772
sg64
Nsg65
Nsbsg66
S'channels_last'
p3773
sg21
(dp3774
sg23
(dp3775
sg25
(lp3776
sg71
(lp3777
sg239
(I3
I3
tp3778
sg31
I01
sg45
I00
sg15
(lp3779
sg50
(dp3780
sg17
Nsbag2
(g3
g4
NtRp3781
(dp3782
g7
(lp3783
sg9
I00
sg10
(lp3784
sg12
I2
sg13
I192
sg14
I00
sg15
(lp3785
sg17
Nsg18
(lp3786
sg20
Nsg21
(dp3787
sg23
(dp3788
sg25
(lp3789
sg27
g2
(g28
g4
NtRp3790
sg30
Nsg31
I01
sg32
g2
(g33
g4
NtRp3791
(dp3792
g36
S'uniform'
p3793
sg38
F1
sg39
Nsg40
S'fan_avg'
p3794
sbsg42
Nsg43
g44
sg45
I00
sg46
S'same'
p3795
sg48
g134
sg50
(dp3796
sg52
S'conv2d_70'
p3797
sg54
Nsg55
g2
(g56
g4
NtRp3798
(dp3799
g59
I4
sg60
Nsg61
Nsg62
(dp3800
sg64
Nsg65
Nsbsg66
S'channels_last'
p3801
sg68
g69
sg70
Nsg71
(lp3802
sg73
(I1
I1
tp3803
sbag2
(g75
g4
NtRp3804
(dp3805
g7
(lp3806
sg9
I01
sg10
(lp3807
sg15
(lp3808
sg81
I3
sg18
(lp3809
sg83
g2
(g28
g4
NtRp3810
sg21
(dp3811
sg86
g2
(g87
g4
NtRp3812
sg23
(dp3813
sg25
(lp3814
sg91
Nsg17
Nsg92
F0.98999999999999999
sg93
Nsg94
g2
(g87
g4
NtRp3815
sg31
I01
sg96
F0.001
sg97
g2
(g28
g4
NtRp3816
sg38
I00
sg45
I00
sg50
(dp3817
sg100
I01
sg101
Nsg52
S'batch_normalization_70'
p3818
sg55
Nsg71
(lp3819
sg104
Nsbag2
(g105
g4
NtRp3820
(dp3821
g18
(lp3822
sg7
(lp3823
sg52
S'activation_70'
p3824
sg9
I01
sg43
g111
sg10
(lp3825
sg55
Nsg21
(dp3826
sg23
(dp3827
sg25
(lp3828
sg71
(lp3829
sg31
I01
sg45
I00
sg15
(lp3830
sg50
(dp3831
sg17
Nsbag2
(g3
g4
NtRp3832
(dp3833
g7
(lp3834
sg9
I00
sg10
(lp3835
sg12
I2
sg13
I192
sg14
I00
sg15
(lp3836
sg17
Nsg18
(lp3837
sg20
Nsg21
(dp3838
sg23
(dp3839
sg25
(lp3840
sg27
g2
(g28
g4
NtRp3841
sg30
Nsg31
I01
sg32
g2
(g33
g4
NtRp3842
(dp3843
g36
S'uniform'
p3844
sg38
F1
sg39
Nsg40
S'fan_avg'
p3845
sbsg42
Nsg43
g44
sg45
I00
sg46
S'same'
p3846
sg48
g134
sg50
(dp3847
sg52
S'conv2d_71'
p3848
sg54
Nsg55
g2
(g56
g4
NtRp3849
(dp3850
g59
I4
sg60
Nsg61
Nsg62
(dp3851
sg64
Nsg65
Nsbsg66
S'channels_last'
p3852
sg68
g69
sg70
Nsg71
(lp3853
sg73
(I1
I1
tp3854
sbag2
(g75
g4
NtRp3855
(dp3856
g7
(lp3857
sg9
I01
sg10
(lp3858
sg15
(lp3859
sg81
I3
sg18
(lp3860
sg83
g2
(g28
g4
NtRp3861
sg21
(dp3862
sg86
g2
(g87
g4
NtRp3863
sg23
(dp3864
sg25
(lp3865
sg91
Nsg17
Nsg92
F0.98999999999999999
sg93
Nsg94
g2
(g87
g4
NtRp3866
sg31
I01
sg96
F0.001
sg97
g2
(g28
g4
NtRp3867
sg38
I00
sg45
I00
sg50
(dp3868
sg100
I01
sg101
Nsg52
S'batch_normalization_71'
p3869
sg55
Nsg71
(lp3870
sg104
Nsbag2
(g105
g4
NtRp3871
(dp3872
g18
(lp3873
sg7
(lp3874
sg52
S'activation_71'
p3875
sg9
I01
sg43
g111
sg10
(lp3876
sg55
Nsg21
(dp3877
sg23
(dp3878
sg25
(lp3879
sg71
(lp3880
sg31
I01
sg45
I00
sg15
(lp3881
sg50
(dp3882
sg17
Nsbag2
(g3
g4
NtRp3883
(dp3884
g7
(lp3885
sg9
I00
sg10
(lp3886
sg12
I2
sg13
I320
sg14
I00
sg15
(lp3887
sg17
Nsg18
(lp3888
sg20
Nsg21
(dp3889
sg23
(dp3890
sg25
(lp3891
sg27
g2
(g28
g4
NtRp3892
sg30
Nsg31
I01
sg32
g2
(g33
g4
NtRp3893
(dp3894
g36
S'uniform'
p3895
sg38
F1
sg39
Nsg40
S'fan_avg'
p3896
sbsg42
Nsg43
g44
sg45
I00
sg46
S'valid'
p3897
sg48
(I2
I2
tp3898
sg50
(dp3899
sg52
S'conv2d_72'
p3900
sg54
Nsg55
g2
(g56
g4
NtRp3901
(dp3902
g59
I4
sg60
Nsg61
Nsg62
(dp3903
sg64
Nsg65
Nsbsg66
S'channels_last'
p3904
sg68
g69
sg70
Nsg71
(lp3905
sg73
(I3
I3
tp3906
sbag2
(g75
g4
NtRp3907
(dp3908
g7
(lp3909
sg9
I01
sg10
(lp3910
sg15
(lp3911
sg81
I3
sg18
(lp3912
sg83
g2
(g28
g4
NtRp3913
sg21
(dp3914
sg86
g2
(g87
g4
NtRp3915
sg23
(dp3916
sg25
(lp3917
sg91
Nsg17
Nsg92
F0.98999999999999999
sg93
Nsg94
g2
(g87
g4
NtRp3918
sg31
I01
sg96
F0.001
sg97
g2
(g28
g4
NtRp3919
sg38
I00
sg45
I00
sg50
(dp3920
sg100
I01
sg101
Nsg52
S'batch_normalization_72'
p3921
sg55
Nsg71
(lp3922
sg104
Nsbag2
(g105
g4
NtRp3923
(dp3924
g18
(lp3925
sg7
(lp3926
sg52
S'activation_72'
p3927
sg9
I01
sg43
g111
sg10
(lp3928
sg55
Nsg21
(dp3929
sg23
(dp3930
sg25
(lp3931
sg71
(lp3932
sg31
I01
sg45
I00
sg15
(lp3933
sg50
(dp3934
sg17
Nsbag2
(g3
g4
NtRp3935
(dp3936
g7
(lp3937
sg9
I00
sg10
(lp3938
sg12
I2
sg13
I192
sg14
I00
sg15
(lp3939
sg17
Nsg18
(lp3940
sg20
Nsg21
(dp3941
sg23
(dp3942
sg25
(lp3943
sg27
g2
(g28
g4
NtRp3944
sg30
Nsg31
I01
sg32
g2
(g33
g4
NtRp3945
(dp3946
g36
S'uniform'
p3947
sg38
F1
sg39
Nsg40
S'fan_avg'
p3948
sbsg42
Nsg43
g44
sg45
I00
sg46
S'same'
p3949
sg48
g134
sg50
(dp3950
sg52
S'conv2d_73'
p3951
sg54
Nsg55
g2
(g56
g4
NtRp3952
(dp3953
g59
I4
sg60
Nsg61
Nsg62
(dp3954
sg64
Nsg65
Nsbsg66
S'channels_last'
p3955
sg68
g69
sg70
Nsg71
(lp3956
sg73
(I1
I1
tp3957
sbag2
(g75
g4
NtRp3958
(dp3959
g7
(lp3960
sg9
I01
sg10
(lp3961
sg15
(lp3962
sg81
I3
sg18
(lp3963
sg83
g2
(g28
g4
NtRp3964
sg21
(dp3965
sg86
g2
(g87
g4
NtRp3966
sg23
(dp3967
sg25
(lp3968
sg91
Nsg17
Nsg92
F0.98999999999999999
sg93
Nsg94
g2
(g87
g4
NtRp3969
sg31
I01
sg96
F0.001
sg97
g2
(g28
g4
NtRp3970
sg38
I00
sg45
I00
sg50
(dp3971
sg100
I01
sg101
Nsg52
S'batch_normalization_73'
p3972
sg55
Nsg71
(lp3973
sg104
Nsbag2
(g105
g4
NtRp3974
(dp3975
g18
(lp3976
sg7
(lp3977
sg52
S'activation_73'
p3978
sg9
I01
sg43
g111
sg10
(lp3979
sg55
Nsg21
(dp3980
sg23
(dp3981
sg25
(lp3982
sg71
(lp3983
sg31
I01
sg45
I00
sg15
(lp3984
sg50
(dp3985
sg17
Nsbag2
(g3
g4
NtRp3986
(dp3987
g7
(lp3988
sg9
I00
sg10
(lp3989
sg12
I2
sg13
I192
sg14
I00
sg15
(lp3990
sg17
Nsg18
(lp3991
sg20
Nsg21
(dp3992
sg23
(dp3993
sg25
(lp3994
sg27
g2
(g28
g4
NtRp3995
sg30
Nsg31
I01
sg32
g2
(g33
g4
NtRp3996
(dp3997
g36
S'uniform'
p3998
sg38
F1
sg39
Nsg40
S'fan_avg'
p3999
sbsg42
Nsg43
g44
sg45
I00
sg46
S'same'
p4000
sg48
g134
sg50
(dp4001
sg52
S'conv2d_74'
p4002
sg54
Nsg55
g2
(g56
g4
NtRp4003
(dp4004
g59
I4
sg60
Nsg61
Nsg62
(dp4005
sg64
Nsg65
Nsbsg66
S'channels_last'
p4006
sg68
g69
sg70
Nsg71
(lp4007
sg73
(I1
I7
tp4008
sbag2
(g75
g4
NtRp4009
(dp4010
g7
(lp4011
sg9
I01
sg10
(lp4012
sg15
(lp4013
sg81
I3
sg18
(lp4014
sg83
g2
(g28
g4
NtRp4015
sg21
(dp4016
sg86
g2
(g87
g4
NtRp4017
sg23
(dp4018
sg25
(lp4019
sg91
Nsg17
Nsg92
F0.98999999999999999
sg93
Nsg94
g2
(g87
g4
NtRp4020
sg31
I01
sg96
F0.001
sg97
g2
(g28
g4
NtRp4021
sg38
I00
sg45
I00
sg50
(dp4022
sg100
I01
sg101
Nsg52
S'batch_normalization_74'
p4023
sg55
Nsg71
(lp4024
sg104
Nsbag2
(g105
g4
NtRp4025
(dp4026
g18
(lp4027
sg7
(lp4028
sg52
S'activation_74'
p4029
sg9
I01
sg43
g111
sg10
(lp4030
sg55
Nsg21
(dp4031
sg23
(dp4032
sg25
(lp4033
sg71
(lp4034
sg31
I01
sg45
I00
sg15
(lp4035
sg50
(dp4036
sg17
Nsbag2
(g3
g4
NtRp4037
(dp4038
g7
(lp4039
sg9
I00
sg10
(lp4040
sg12
I2
sg13
I192
sg14
I00
sg15
(lp4041
sg17
Nsg18
(lp4042
sg20
Nsg21
(dp4043
sg23
(dp4044
sg25
(lp4045
sg27
g2
(g28
g4
NtRp4046
sg30
Nsg31
I01
sg32
g2
(g33
g4
NtRp4047
(dp4048
g36
S'uniform'
p4049
sg38
F1
sg39
Nsg40
S'fan_avg'
p4050
sbsg42
Nsg43
g44
sg45
I00
sg46
S'same'
p4051
sg48
g134
sg50
(dp4052
sg52
S'conv2d_75'
p4053
sg54
Nsg55
g2
(g56
g4
NtRp4054
(dp4055
g59
I4
sg60
Nsg61
Nsg62
(dp4056
sg64
Nsg65
Nsbsg66
S'channels_last'
p4057
sg68
g69
sg70
Nsg71
(lp4058
sg73
(I7
I1
tp4059
sbag2
(g75
g4
NtRp4060
(dp4061
g7
(lp4062
sg9
I01
sg10
(lp4063
sg15
(lp4064
sg81
I3
sg18
(lp4065
sg83
g2
(g28
g4
NtRp4066
sg21
(dp4067
sg86
g2
(g87
g4
NtRp4068
sg23
(dp4069
sg25
(lp4070
sg91
Nsg17
Nsg92
F0.98999999999999999
sg93
Nsg94
g2
(g87
g4
NtRp4071
sg31
I01
sg96
F0.001
sg97
g2
(g28
g4
NtRp4072
sg38
I00
sg45
I00
sg50
(dp4073
sg100
I01
sg101
Nsg52
S'batch_normalization_75'
p4074
sg55
Nsg71
(lp4075
sg104
Nsbag2
(g105
g4
NtRp4076
(dp4077
g18
(lp4078
sg7
(lp4079
sg52
S'activation_75'
p4080
sg9
I01
sg43
g111
sg10
(lp4081
sg55
Nsg21
(dp4082
sg23
(dp4083
sg25
(lp4084
sg71
(lp4085
sg31
I01
sg45
I00
sg15
(lp4086
sg50
(dp4087
sg17
Nsbag2
(g3
g4
NtRp4088
(dp4089
g7
(lp4090
sg9
I00
sg10
(lp4091
sg12
I2
sg13
I192
sg14
I00
sg15
(lp4092
sg17
Nsg18
(lp4093
sg20
Nsg21
(dp4094
sg23
(dp4095
sg25
(lp4096
sg27
g2
(g28
g4
NtRp4097
sg30
Nsg31
I01
sg32
g2
(g33
g4
NtRp4098
(dp4099
g36
S'uniform'
p4100
sg38
F1
sg39
Nsg40
S'fan_avg'
p4101
sbsg42
Nsg43
g44
sg45
I00
sg46
S'valid'
p4102
sg48
(I2
I2
tp4103
sg50
(dp4104
sg52
S'conv2d_76'
p4105
sg54
Nsg55
g2
(g56
g4
NtRp4106
(dp4107
g59
I4
sg60
Nsg61
Nsg62
(dp4108
sg64
Nsg65
Nsbsg66
S'channels_last'
p4109
sg68
g69
sg70
Nsg71
(lp4110
sg73
(I3
I3
tp4111
sbag2
(g75
g4
NtRp4112
(dp4113
g7
(lp4114
sg9
I01
sg10
(lp4115
sg15
(lp4116
sg81
I3
sg18
(lp4117
sg83
g2
(g28
g4
NtRp4118
sg21
(dp4119
sg86
g2
(g87
g4
NtRp4120
sg23
(dp4121
sg25
(lp4122
sg91
Nsg17
Nsg92
F0.98999999999999999
sg93
Nsg94
g2
(g87
g4
NtRp4123
sg31
I01
sg96
F0.001
sg97
g2
(g28
g4
NtRp4124
sg38
I00
sg45
I00
sg50
(dp4125
sg100
I01
sg101
Nsg52
S'batch_normalization_76'
p4126
sg55
Nsg71
(lp4127
sg104
Nsbag2
(g105
g4
NtRp4128
(dp4129
g18
(lp4130
sg7
(lp4131
sg52
S'activation_76'
p4132
sg9
I01
sg43
g111
sg10
(lp4133
sg55
Nsg21
(dp4134
sg23
(dp4135
sg25
(lp4136
sg71
(lp4137
sg31
I01
sg45
I00
sg15
(lp4138
sg50
(dp4139
sg17
Nsbag2
(g222
g4
NtRp4140
(dp4141
g46
S'valid'
p4142
sg18
(lp4143
sg7
(lp4144
sg52
S'max_pooling2d_4'
p4145
sg48
(I2
I2
tp4146
sg9
I00
sg10
(lp4147
sg55
g2
(g56
g4
NtRp4148
(dp4149
g59
I4
sg60
Nsg61
Nsg62
(dp4150
sg64
Nsg65
Nsbsg66
S'channels_last'
p4151
sg21
(dp4152
sg23
(dp4153
sg25
(lp4154
sg71
(lp4155
sg239
(I3
I3
tp4156
sg31
I01
sg45
I00
sg15
(lp4157
sg50
(dp4158
sg17
Nsbag2
(g3
g4
NtRp4159
(dp4160
g7
(lp4161
sg9
I00
sg10
(lp4162
sg12
I2
sg13
I320
sg14
I00
sg15
(lp4163
sg17
Nsg18
(lp4164
sg20
Nsg21
(dp4165
sg23
(dp4166
sg25
(lp4167
sg27
g2
(g28
g4
NtRp4168
sg30
Nsg31
I01
sg32
g2
(g33
g4
NtRp4169
(dp4170
g36
S'uniform'
p4171
sg38
F1
sg39
Nsg40
S'fan_avg'
p4172
sbsg42
Nsg43
g44
sg45
I00
sg46
S'same'
p4173
sg48
g134
sg50
(dp4174
sg52
S'conv2d_77'
p4175
sg54
Nsg55
g2
(g56
g4
NtRp4176
(dp4177
g59
I4
sg60
Nsg61
Nsg62
(dp4178
sg64
Nsg65
Nsbsg66
S'channels_last'
p4179
sg68
g69
sg70
Nsg71
(lp4180
sg73
(I1
I1
tp4181
sbag2
(g75
g4
NtRp4182
(dp4183
g7
(lp4184
sg9
I01
sg10
(lp4185
sg15
(lp4186
sg81
I3
sg18
(lp4187
sg83
g2
(g28
g4
NtRp4188
sg21
(dp4189
sg86
g2
(g87
g4
NtRp4190
sg23
(dp4191
sg25
(lp4192
sg91
Nsg17
Nsg92
F0.98999999999999999
sg93
Nsg94
g2
(g87
g4
NtRp4193
sg31
I01
sg96
F0.001
sg97
g2
(g28
g4
NtRp4194
sg38
I00
sg45
I00
sg50
(dp4195
sg100
I01
sg101
Nsg52
S'batch_normalization_77'
p4196
sg55
Nsg71
(lp4197
sg104
Nsbag2
(g105
g4
NtRp4198
(dp4199
g18
(lp4200
sg7
(lp4201
sg52
S'activation_77'
p4202
sg9
I01
sg43
g111
sg10
(lp4203
sg55
Nsg21
(dp4204
sg23
(dp4205
sg25
(lp4206
sg71
(lp4207
sg31
I01
sg45
I00
sg15
(lp4208
sg50
(dp4209
sg17
Nsbag2
(g3
g4
NtRp4210
(dp4211
g7
(lp4212
sg9
I00
sg10
(lp4213
sg12
I2
sg13
I384
sg14
I00
sg15
(lp4214
sg17
Nsg18
(lp4215
sg20
Nsg21
(dp4216
sg23
(dp4217
sg25
(lp4218
sg27
g2
(g28
g4
NtRp4219
sg30
Nsg31
I01
sg32
g2
(g33
g4
NtRp4220
(dp4221
g36
S'uniform'
p4222
sg38
F1
sg39
Nsg40
S'fan_avg'
p4223
sbsg42
Nsg43
g44
sg45
I00
sg46
S'same'
p4224
sg48
g134
sg50
(dp4225
sg52
S'conv2d_78'
p4226
sg54
Nsg55
g2
(g56
g4
NtRp4227
(dp4228
g59
I4
sg60
Nsg61
Nsg62
(dp4229
sg64
Nsg65
Nsbsg66
S'channels_last'
p4230
sg68
g69
sg70
Nsg71
(lp4231
sg73
(I1
I1
tp4232
sbag2
(g75
g4
NtRp4233
(dp4234
g7
(lp4235
sg9
I01
sg10
(lp4236
sg15
(lp4237
sg81
I3
sg18
(lp4238
sg83
g2
(g28
g4
NtRp4239
sg21
(dp4240
sg86
g2
(g87
g4
NtRp4241
sg23
(dp4242
sg25
(lp4243
sg91
Nsg17
Nsg92
F0.98999999999999999
sg93
Nsg94
g2
(g87
g4
NtRp4244
sg31
I01
sg96
F0.001
sg97
g2
(g28
g4
NtRp4245
sg38
I00
sg45
I00
sg50
(dp4246
sg100
I01
sg101
Nsg52
S'batch_normalization_78'
p4247
sg55
Nsg71
(lp4248
sg104
Nsbag2
(g105
g4
NtRp4249
(dp4250
g18
(lp4251
sg7
(lp4252
sg52
S'activation_78'
p4253
sg9
I01
sg43
g111
sg10
(lp4254
sg55
Nsg21
(dp4255
sg23
(dp4256
sg25
(lp4257
sg71
(lp4258
sg31
I01
sg45
I00
sg15
(lp4259
sg50
(dp4260
sg17
Nsbag2
(g3
g4
NtRp4261
(dp4262
g7
(lp4263
sg9
I00
sg10
(lp4264
sg12
I2
sg13
I384
sg14
I00
sg15
(lp4265
sg17
Nsg18
(lp4266
sg20
Nsg21
(dp4267
sg23
(dp4268
sg25
(lp4269
sg27
g2
(g28
g4
NtRp4270
sg30
Nsg31
I01
sg32
g2
(g33
g4
NtRp4271
(dp4272
g36
S'uniform'
p4273
sg38
F1
sg39
Nsg40
S'fan_avg'
p4274
sbsg42
Nsg43
g44
sg45
I00
sg46
S'same'
p4275
sg48
g134
sg50
(dp4276
sg52
S'conv2d_79'
p4277
sg54
Nsg55
g2
(g56
g4
NtRp4278
(dp4279
g59
I4
sg60
Nsg61
Nsg62
(dp4280
sg64
Nsg65
Nsbsg66
S'channels_last'
p4281
sg68
g69
sg70
Nsg71
(lp4282
sg73
(I1
I3
tp4283
sbag2
(g75
g4
NtRp4284
(dp4285
g7
(lp4286
sg9
I01
sg10
(lp4287
sg15
(lp4288
sg81
I3
sg18
(lp4289
sg83
g2
(g28
g4
NtRp4290
sg21
(dp4291
sg86
g2
(g87
g4
NtRp4292
sg23
(dp4293
sg25
(lp4294
sg91
Nsg17
Nsg92
F0.98999999999999999
sg93
Nsg94
g2
(g87
g4
NtRp4295
sg31
I01
sg96
F0.001
sg97
g2
(g28
g4
NtRp4296
sg38
I00
sg45
I00
sg50
(dp4297
sg100
I01
sg101
Nsg52
S'batch_normalization_79'
p4298
sg55
Nsg71
(lp4299
sg104
Nsbag2
(g105
g4
NtRp4300
(dp4301
g18
(lp4302
sg7
(lp4303
sg52
S'activation_79'
p4304
sg9
I01
sg43
g111
sg10
(lp4305
sg55
Nsg21
(dp4306
sg23
(dp4307
sg25
(lp4308
sg71
(lp4309
sg31
I01
sg45
I00
sg15
(lp4310
sg50
(dp4311
sg17
Nsbag2
(g3
g4
NtRp4312
(dp4313
g7
(lp4314
sg9
I00
sg10
(lp4315
sg12
I2
sg13
I384
sg14
I00
sg15
(lp4316
sg17
Nsg18
(lp4317
sg20
Nsg21
(dp4318
sg23
(dp4319
sg25
(lp4320
sg27
g2
(g28
g4
NtRp4321
sg30
Nsg31
I01
sg32
g2
(g33
g4
NtRp4322
(dp4323
g36
S'uniform'
p4324
sg38
F1
sg39
Nsg40
S'fan_avg'
p4325
sbsg42
Nsg43
g44
sg45
I00
sg46
S'same'
p4326
sg48
g134
sg50
(dp4327
sg52
S'conv2d_80'
p4328
sg54
Nsg55
g2
(g56
g4
NtRp4329
(dp4330
g59
I4
sg60
Nsg61
Nsg62
(dp4331
sg64
Nsg65
Nsbsg66
S'channels_last'
p4332
sg68
g69
sg70
Nsg71
(lp4333
sg73
(I3
I1
tp4334
sbag2
(g75
g4
NtRp4335
(dp4336
g7
(lp4337
sg9
I01
sg10
(lp4338
sg15
(lp4339
sg81
I3
sg18
(lp4340
sg83
g2
(g28
g4
NtRp4341
sg21
(dp4342
sg86
g2
(g87
g4
NtRp4343
sg23
(dp4344
sg25
(lp4345
sg91
Nsg17
Nsg92
F0.98999999999999999
sg93
Nsg94
g2
(g87
g4
NtRp4346
sg31
I01
sg96
F0.001
sg97
g2
(g28
g4
NtRp4347
sg38
I00
sg45
I00
sg50
(dp4348
sg100
I01
sg101
Nsg52
S'batch_normalization_80'
p4349
sg55
Nsg71
(lp4350
sg104
Nsbag2
(g105
g4
NtRp4351
(dp4352
g18
(lp4353
sg7
(lp4354
sg52
S'activation_80'
p4355
sg9
I01
sg43
g111
sg10
(lp4356
sg55
Nsg21
(dp4357
sg23
(dp4358
sg25
(lp4359
sg71
(lp4360
sg31
I01
sg45
I00
sg15
(lp4361
sg50
(dp4362
sg17
Nsbag2
(g3
g4
NtRp4363
(dp4364
g7
(lp4365
sg9
I00
sg10
(lp4366
sg12
I2
sg13
I448
sg14
I00
sg15
(lp4367
sg17
Nsg18
(lp4368
sg20
Nsg21
(dp4369
sg23
(dp4370
sg25
(lp4371
sg27
g2
(g28
g4
NtRp4372
sg30
Nsg31
I01
sg32
g2
(g33
g4
NtRp4373
(dp4374
g36
S'uniform'
p4375
sg38
F1
sg39
Nsg40
S'fan_avg'
p4376
sbsg42
Nsg43
g44
sg45
I00
sg46
S'same'
p4377
sg48
g134
sg50
(dp4378
sg52
S'conv2d_81'
p4379
sg54
Nsg55
g2
(g56
g4
NtRp4380
(dp4381
g59
I4
sg60
Nsg61
Nsg62
(dp4382
sg64
Nsg65
Nsbsg66
S'channels_last'
p4383
sg68
g69
sg70
Nsg71
(lp4384
sg73
(I1
I1
tp4385
sbag2
(g75
g4
NtRp4386
(dp4387
g7
(lp4388
sg9
I01
sg10
(lp4389
sg15
(lp4390
sg81
I3
sg18
(lp4391
sg83
g2
(g28
g4
NtRp4392
sg21
(dp4393
sg86
g2
(g87
g4
NtRp4394
sg23
(dp4395
sg25
(lp4396
sg91
Nsg17
Nsg92
F0.98999999999999999
sg93
Nsg94
g2
(g87
g4
NtRp4397
sg31
I01
sg96
F0.001
sg97
g2
(g28
g4
NtRp4398
sg38
I00
sg45
I00
sg50
(dp4399
sg100
I01
sg101
Nsg52
S'batch_normalization_81'
p4400
sg55
Nsg71
(lp4401
sg104
Nsbag2
(g105
g4
NtRp4402
(dp4403
g18
(lp4404
sg7
(lp4405
sg52
S'activation_81'
p4406
sg9
I01
sg43
g111
sg10
(lp4407
sg55
Nsg21
(dp4408
sg23
(dp4409
sg25
(lp4410
sg71
(lp4411
sg31
I01
sg45
I00
sg15
(lp4412
sg50
(dp4413
sg17
Nsbag2
(g3
g4
NtRp4414
(dp4415
g7
(lp4416
sg9
I00
sg10
(lp4417
sg12
I2
sg13
I384
sg14
I00
sg15
(lp4418
sg17
Nsg18
(lp4419
sg20
Nsg21
(dp4420
sg23
(dp4421
sg25
(lp4422
sg27
g2
(g28
g4
NtRp4423
sg30
Nsg31
I01
sg32
g2
(g33
g4
NtRp4424
(dp4425
g36
S'uniform'
p4426
sg38
F1
sg39
Nsg40
S'fan_avg'
p4427
sbsg42
Nsg43
g44
sg45
I00
sg46
S'same'
p4428
sg48
g134
sg50
(dp4429
sg52
S'conv2d_82'
p4430
sg54
Nsg55
g2
(g56
g4
NtRp4431
(dp4432
g59
I4
sg60
Nsg61
Nsg62
(dp4433
sg64
Nsg65
Nsbsg66
S'channels_last'
p4434
sg68
g69
sg70
Nsg71
(lp4435
sg73
(I3
I3
tp4436
sbag2
(g75
g4
NtRp4437
(dp4438
g7
(lp4439
sg9
I01
sg10
(lp4440
sg15
(lp4441
sg81
I3
sg18
(lp4442
sg83
g2
(g28
g4
NtRp4443
sg21
(dp4444
sg86
g2
(g87
g4
NtRp4445
sg23
(dp4446
sg25
(lp4447
sg91
Nsg17
Nsg92
F0.98999999999999999
sg93
Nsg94
g2
(g87
g4
NtRp4448
sg31
I01
sg96
F0.001
sg97
g2
(g28
g4
NtRp4449
sg38
I00
sg45
I00
sg50
(dp4450
sg100
I01
sg101
Nsg52
S'batch_normalization_82'
p4451
sg55
Nsg71
(lp4452
sg104
Nsbag2
(g105
g4
NtRp4453
(dp4454
g18
(lp4455
sg7
(lp4456
sg52
S'activation_82'
p4457
sg9
I01
sg43
g111
sg10
(lp4458
sg55
Nsg21
(dp4459
sg23
(dp4460
sg25
(lp4461
sg71
(lp4462
sg31
I01
sg45
I00
sg15
(lp4463
sg50
(dp4464
sg17
Nsbag2
(g3
g4
NtRp4465
(dp4466
g7
(lp4467
sg9
I00
sg10
(lp4468
sg12
I2
sg13
I384
sg14
I00
sg15
(lp4469
sg17
Nsg18
(lp4470
sg20
Nsg21
(dp4471
sg23
(dp4472
sg25
(lp4473
sg27
g2
(g28
g4
NtRp4474
sg30
Nsg31
I01
sg32
g2
(g33
g4
NtRp4475
(dp4476
g36
S'uniform'
p4477
sg38
F1
sg39
Nsg40
S'fan_avg'
p4478
sbsg42
Nsg43
g44
sg45
I00
sg46
S'same'
p4479
sg48
g134
sg50
(dp4480
sg52
S'conv2d_83'
p4481
sg54
Nsg55
g2
(g56
g4
NtRp4482
(dp4483
g59
I4
sg60
Nsg61
Nsg62
(dp4484
sg64
Nsg65
Nsbsg66
S'channels_last'
p4485
sg68
g69
sg70
Nsg71
(lp4486
sg73
(I1
I3
tp4487
sbag2
(g75
g4
NtRp4488
(dp4489
g7
(lp4490
sg9
I01
sg10
(lp4491
sg15
(lp4492
sg81
I3
sg18
(lp4493
sg83
g2
(g28
g4
NtRp4494
sg21
(dp4495
sg86
g2
(g87
g4
NtRp4496
sg23
(dp4497
sg25
(lp4498
sg91
Nsg17
Nsg92
F0.98999999999999999
sg93
Nsg94
g2
(g87
g4
NtRp4499
sg31
I01
sg96
F0.001
sg97
g2
(g28
g4
NtRp4500
sg38
I00
sg45
I00
sg50
(dp4501
sg100
I01
sg101
Nsg52
S'batch_normalization_83'
p4502
sg55
Nsg71
(lp4503
sg104
Nsbag2
(g105
g4
NtRp4504
(dp4505
g18
(lp4506
sg7
(lp4507
sg52
S'activation_83'
p4508
sg9
I01
sg43
g111
sg10
(lp4509
sg55
Nsg21
(dp4510
sg23
(dp4511
sg25
(lp4512
sg71
(lp4513
sg31
I01
sg45
I00
sg15
(lp4514
sg50
(dp4515
sg17
Nsbag2
(g3
g4
NtRp4516
(dp4517
g7
(lp4518
sg9
I00
sg10
(lp4519
sg12
I2
sg13
I384
sg14
I00
sg15
(lp4520
sg17
Nsg18
(lp4521
sg20
Nsg21
(dp4522
sg23
(dp4523
sg25
(lp4524
sg27
g2
(g28
g4
NtRp4525
sg30
Nsg31
I01
sg32
g2
(g33
g4
NtRp4526
(dp4527
g36
S'uniform'
p4528
sg38
F1
sg39
Nsg40
S'fan_avg'
p4529
sbsg42
Nsg43
g44
sg45
I00
sg46
S'same'
p4530
sg48
g134
sg50
(dp4531
sg52
S'conv2d_84'
p4532
sg54
Nsg55
g2
(g56
g4
NtRp4533
(dp4534
g59
I4
sg60
Nsg61
Nsg62
(dp4535
sg64
Nsg65
Nsbsg66
S'channels_last'
p4536
sg68
g69
sg70
Nsg71
(lp4537
sg73
(I3
I1
tp4538
sbag2
(g75
g4
NtRp4539
(dp4540
g7
(lp4541
sg9
I01
sg10
(lp4542
sg15
(lp4543
sg81
I3
sg18
(lp4544
sg83
g2
(g28
g4
NtRp4545
sg21
(dp4546
sg86
g2
(g87
g4
NtRp4547
sg23
(dp4548
sg25
(lp4549
sg91
Nsg17
Nsg92
F0.98999999999999999
sg93
Nsg94
g2
(g87
g4
NtRp4550
sg31
I01
sg96
F0.001
sg97
g2
(g28
g4
NtRp4551
sg38
I00
sg45
I00
sg50
(dp4552
sg100
I01
sg101
Nsg52
S'batch_normalization_84'
p4553
sg55
Nsg71
(lp4554
sg104
Nsbag2
(g105
g4
NtRp4555
(dp4556
g18
(lp4557
sg7
(lp4558
sg52
S'activation_84'
p4559
sg9
I01
sg43
g111
sg10
(lp4560
sg55
Nsg21
(dp4561
sg23
(dp4562
sg25
(lp4563
sg71
(lp4564
sg31
I01
sg45
I00
sg15
(lp4565
sg50
(dp4566
sg17
Nsbag2
(g670
g4
NtRp4567
(dp4568
g46
S'same'
p4569
sg18
(lp4570
sg7
(lp4571
sg52
S'average_pooling2d_8'
p4572
sg48
(I1
I1
tp4573
sg9
I00
sg10
(lp4574
sg55
g2
(g56
g4
NtRp4575
(dp4576
g59
I4
sg60
Nsg61
Nsg62
(dp4577
sg64
Nsg65
Nsbsg66
S'channels_last'
p4578
sg21
(dp4579
sg23
(dp4580
sg25
(lp4581
sg71
(lp4582
sg239
(I3
I3
tp4583
sg31
I01
sg45
I00
sg15
(lp4584
sg50
(dp4585
sg17
Nsbag2
(g3
g4
NtRp4586
(dp4587
g7
(lp4588
sg9
I00
sg10
(lp4589
sg12
I2
sg13
I192
sg14
I00
sg15
(lp4590
sg17
Nsg18
(lp4591
sg20
Nsg21
(dp4592
sg23
(dp4593
sg25
(lp4594
sg27
g2
(g28
g4
NtRp4595
sg30
Nsg31
I01
sg32
g2
(g33
g4
NtRp4596
(dp4597
g36
S'uniform'
p4598
sg38
F1
sg39
Nsg40
S'fan_avg'
p4599
sbsg42
Nsg43
g44
sg45
I00
sg46
S'same'
p4600
sg48
g134
sg50
(dp4601
sg52
S'conv2d_85'
p4602
sg54
Nsg55
g2
(g56
g4
NtRp4603
(dp4604
g59
I4
sg60
Nsg61
Nsg62
(dp4605
sg64
Nsg65
Nsbsg66
S'channels_last'
p4606
sg68
g69
sg70
Nsg71
(lp4607
sg73
(I1
I1
tp4608
sbag2
(g75
g4
NtRp4609
(dp4610
g7
(lp4611
sg9
I01
sg10
(lp4612
sg15
(lp4613
sg81
I3
sg18
(lp4614
sg83
g2
(g28
g4
NtRp4615
sg21
(dp4616
sg86
g2
(g87
g4
NtRp4617
sg23
(dp4618
sg25
(lp4619
sg91
Nsg17
Nsg92
F0.98999999999999999
sg93
Nsg94
g2
(g87
g4
NtRp4620
sg31
I01
sg96
F0.001
sg97
g2
(g28
g4
NtRp4621
sg38
I00
sg45
I00
sg50
(dp4622
sg100
I01
sg101
Nsg52
S'batch_normalization_85'
p4623
sg55
Nsg71
(lp4624
sg104
Nsbag2
(g105
g4
NtRp4625
(dp4626
g18
(lp4627
sg7
(lp4628
sg52
S'activation_85'
p4629
sg9
I01
sg43
g111
sg10
(lp4630
sg55
Nsg21
(dp4631
sg23
(dp4632
sg25
(lp4633
sg71
(lp4634
sg31
I01
sg45
I00
sg15
(lp4635
sg50
(dp4636
sg17
Nsbag2
(g3
g4
NtRp4637
(dp4638
g7
(lp4639
sg9
I00
sg10
(lp4640
sg12
I2
sg13
I320
sg14
I00
sg15
(lp4641
sg17
Nsg18
(lp4642
sg20
Nsg21
(dp4643
sg23
(dp4644
sg25
(lp4645
sg27
g2
(g28
g4
NtRp4646
sg30
Nsg31
I01
sg32
g2
(g33
g4
NtRp4647
(dp4648
g36
S'uniform'
p4649
sg38
F1
sg39
Nsg40
S'fan_avg'
p4650
sbsg42
Nsg43
g44
sg45
I00
sg46
S'same'
p4651
sg48
g134
sg50
(dp4652
sg52
S'conv2d_86'
p4653
sg54
Nsg55
g2
(g56
g4
NtRp4654
(dp4655
g59
I4
sg60
Nsg61
Nsg62
(dp4656
sg64
Nsg65
Nsbsg66
S'channels_last'
p4657
sg68
g69
sg70
Nsg71
(lp4658
sg73
(I1
I1
tp4659
sbag2
(g75
g4
NtRp4660
(dp4661
g7
(lp4662
sg9
I01
sg10
(lp4663
sg15
(lp4664
sg81
I3
sg18
(lp4665
sg83
g2
(g28
g4
NtRp4666
sg21
(dp4667
sg86
g2
(g87
g4
NtRp4668
sg23
(dp4669
sg25
(lp4670
sg91
Nsg17
Nsg92
F0.98999999999999999
sg93
Nsg94
g2
(g87
g4
NtRp4671
sg31
I01
sg96
F0.001
sg97
g2
(g28
g4
NtRp4672
sg38
I00
sg45
I00
sg50
(dp4673
sg100
I01
sg101
Nsg52
S'batch_normalization_86'
p4674
sg55
Nsg71
(lp4675
sg104
Nsbag2
(g105
g4
NtRp4676
(dp4677
g18
(lp4678
sg7
(lp4679
sg52
S'activation_86'
p4680
sg9
I01
sg43
g111
sg10
(lp4681
sg55
Nsg21
(dp4682
sg23
(dp4683
sg25
(lp4684
sg71
(lp4685
sg31
I01
sg45
I00
sg15
(lp4686
sg50
(dp4687
sg17
Nsbag2
(g3
g4
NtRp4688
(dp4689
g7
(lp4690
sg9
I00
sg10
(lp4691
sg12
I2
sg13
I384
sg14
I00
sg15
(lp4692
sg17
Nsg18
(lp4693
sg20
Nsg21
(dp4694
sg23
(dp4695
sg25
(lp4696
sg27
g2
(g28
g4
NtRp4697
sg30
Nsg31
I01
sg32
g2
(g33
g4
NtRp4698
(dp4699
g36
S'uniform'
p4700
sg38
F1
sg39
Nsg40
S'fan_avg'
p4701
sbsg42
Nsg43
g44
sg45
I00
sg46
S'same'
p4702
sg48
g134
sg50
(dp4703
sg52
S'conv2d_87'
p4704
sg54
Nsg55
g2
(g56
g4
NtRp4705
(dp4706
g59
I4
sg60
Nsg61
Nsg62
(dp4707
sg64
Nsg65
Nsbsg66
S'channels_last'
p4708
sg68
g69
sg70
Nsg71
(lp4709
sg73
(I1
I1
tp4710
sbag2
(g75
g4
NtRp4711
(dp4712
g7
(lp4713
sg9
I01
sg10
(lp4714
sg15
(lp4715
sg81
I3
sg18
(lp4716
sg83
g2
(g28
g4
NtRp4717
sg21
(dp4718
sg86
g2
(g87
g4
NtRp4719
sg23
(dp4720
sg25
(lp4721
sg91
Nsg17
Nsg92
F0.98999999999999999
sg93
Nsg94
g2
(g87
g4
NtRp4722
sg31
I01
sg96
F0.001
sg97
g2
(g28
g4
NtRp4723
sg38
I00
sg45
I00
sg50
(dp4724
sg100
I01
sg101
Nsg52
S'batch_normalization_87'
p4725
sg55
Nsg71
(lp4726
sg104
Nsbag2
(g105
g4
NtRp4727
(dp4728
g18
(lp4729
sg7
(lp4730
sg52
S'activation_87'
p4731
sg9
I01
sg43
g111
sg10
(lp4732
sg55
Nsg21
(dp4733
sg23
(dp4734
sg25
(lp4735
sg71
(lp4736
sg31
I01
sg45
I00
sg15
(lp4737
sg50
(dp4738
sg17
Nsbag2
(g3
g4
NtRp4739
(dp4740
g7
(lp4741
sg9
I00
sg10
(lp4742
sg12
I2
sg13
I384
sg14
I00
sg15
(lp4743
sg17
Nsg18
(lp4744
sg20
Nsg21
(dp4745
sg23
(dp4746
sg25
(lp4747
sg27
g2
(g28
g4
NtRp4748
sg30
Nsg31
I01
sg32
g2
(g33
g4
NtRp4749
(dp4750
g36
S'uniform'
p4751
sg38
F1
sg39
Nsg40
S'fan_avg'
p4752
sbsg42
Nsg43
g44
sg45
I00
sg46
S'same'
p4753
sg48
g134
sg50
(dp4754
sg52
S'conv2d_88'
p4755
sg54
Nsg55
g2
(g56
g4
NtRp4756
(dp4757
g59
I4
sg60
Nsg61
Nsg62
(dp4758
sg64
Nsg65
Nsbsg66
S'channels_last'
p4759
sg68
g69
sg70
Nsg71
(lp4760
sg73
(I1
I3
tp4761
sbag2
(g75
g4
NtRp4762
(dp4763
g7
(lp4764
sg9
I01
sg10
(lp4765
sg15
(lp4766
sg81
I3
sg18
(lp4767
sg83
g2
(g28
g4
NtRp4768
sg21
(dp4769
sg86
g2
(g87
g4
NtRp4770
sg23
(dp4771
sg25
(lp4772
sg91
Nsg17
Nsg92
F0.98999999999999999
sg93
Nsg94
g2
(g87
g4
NtRp4773
sg31
I01
sg96
F0.001
sg97
g2
(g28
g4
NtRp4774
sg38
I00
sg45
I00
sg50
(dp4775
sg100
I01
sg101
Nsg52
S'batch_normalization_88'
p4776
sg55
Nsg71
(lp4777
sg104
Nsbag2
(g105
g4
NtRp4778
(dp4779
g18
(lp4780
sg7
(lp4781
sg52
S'activation_88'
p4782
sg9
I01
sg43
g111
sg10
(lp4783
sg55
Nsg21
(dp4784
sg23
(dp4785
sg25
(lp4786
sg71
(lp4787
sg31
I01
sg45
I00
sg15
(lp4788
sg50
(dp4789
sg17
Nsbag2
(g3
g4
NtRp4790
(dp4791
g7
(lp4792
sg9
I00
sg10
(lp4793
sg12
I2
sg13
I384
sg14
I00
sg15
(lp4794
sg17
Nsg18
(lp4795
sg20
Nsg21
(dp4796
sg23
(dp4797
sg25
(lp4798
sg27
g2
(g28
g4
NtRp4799
sg30
Nsg31
I01
sg32
g2
(g33
g4
NtRp4800
(dp4801
g36
S'uniform'
p4802
sg38
F1
sg39
Nsg40
S'fan_avg'
p4803
sbsg42
Nsg43
g44
sg45
I00
sg46
S'same'
p4804
sg48
g134
sg50
(dp4805
sg52
S'conv2d_89'
p4806
sg54
Nsg55
g2
(g56
g4
NtRp4807
(dp4808
g59
I4
sg60
Nsg61
Nsg62
(dp4809
sg64
Nsg65
Nsbsg66
S'channels_last'
p4810
sg68
g69
sg70
Nsg71
(lp4811
sg73
(I3
I1
tp4812
sbag2
(g75
g4
NtRp4813
(dp4814
g7
(lp4815
sg9
I01
sg10
(lp4816
sg15
(lp4817
sg81
I3
sg18
(lp4818
sg83
g2
(g28
g4
NtRp4819
sg21
(dp4820
sg86
g2
(g87
g4
NtRp4821
sg23
(dp4822
sg25
(lp4823
sg91
Nsg17
Nsg92
F0.98999999999999999
sg93
Nsg94
g2
(g87
g4
NtRp4824
sg31
I01
sg96
F0.001
sg97
g2
(g28
g4
NtRp4825
sg38
I00
sg45
I00
sg50
(dp4826
sg100
I01
sg101
Nsg52
S'batch_normalization_89'
p4827
sg55
Nsg71
(lp4828
sg104
Nsbag2
(g105
g4
NtRp4829
(dp4830
g18
(lp4831
sg7
(lp4832
sg52
S'activation_89'
p4833
sg9
I01
sg43
g111
sg10
(lp4834
sg55
Nsg21
(dp4835
sg23
(dp4836
sg25
(lp4837
sg71
(lp4838
sg31
I01
sg45
I00
sg15
(lp4839
sg50
(dp4840
sg17
Nsbag2
(g3
g4
NtRp4841
(dp4842
g7
(lp4843
sg9
I00
sg10
(lp4844
sg12
I2
sg13
I448
sg14
I00
sg15
(lp4845
sg17
Nsg18
(lp4846
sg20
Nsg21
(dp4847
sg23
(dp4848
sg25
(lp4849
sg27
g2
(g28
g4
NtRp4850
sg30
Nsg31
I01
sg32
g2
(g33
g4
NtRp4851
(dp4852
g36
S'uniform'
p4853
sg38
F1
sg39
Nsg40
S'fan_avg'
p4854
sbsg42
Nsg43
g44
sg45
I00
sg46
S'same'
p4855
sg48
g134
sg50
(dp4856
sg52
S'conv2d_90'
p4857
sg54
Nsg55
g2
(g56
g4
NtRp4858
(dp4859
g59
I4
sg60
Nsg61
Nsg62
(dp4860
sg64
Nsg65
Nsbsg66
S'channels_last'
p4861
sg68
g69
sg70
Nsg71
(lp4862
sg73
(I1
I1
tp4863
sbag2
(g75
g4
NtRp4864
(dp4865
g7
(lp4866
sg9
I01
sg10
(lp4867
sg15
(lp4868
sg81
I3
sg18
(lp4869
sg83
g2
(g28
g4
NtRp4870
sg21
(dp4871
sg86
g2
(g87
g4
NtRp4872
sg23
(dp4873
sg25
(lp4874
sg91
Nsg17
Nsg92
F0.98999999999999999
sg93
Nsg94
g2
(g87
g4
NtRp4875
sg31
I01
sg96
F0.001
sg97
g2
(g28
g4
NtRp4876
sg38
I00
sg45
I00
sg50
(dp4877
sg100
I01
sg101
Nsg52
S'batch_normalization_90'
p4878
sg55
Nsg71
(lp4879
sg104
Nsbag2
(g105
g4
NtRp4880
(dp4881
g18
(lp4882
sg7
(lp4883
sg52
S'activation_90'
p4884
sg9
I01
sg43
g111
sg10
(lp4885
sg55
Nsg21
(dp4886
sg23
(dp4887
sg25
(lp4888
sg71
(lp4889
sg31
I01
sg45
I00
sg15
(lp4890
sg50
(dp4891
sg17
Nsbag2
(g3
g4
NtRp4892
(dp4893
g7
(lp4894
sg9
I00
sg10
(lp4895
sg12
I2
sg13
I384
sg14
I00
sg15
(lp4896
sg17
Nsg18
(lp4897
sg20
Nsg21
(dp4898
sg23
(dp4899
sg25
(lp4900
sg27
g2
(g28
g4
NtRp4901
sg30
Nsg31
I01
sg32
g2
(g33
g4
NtRp4902
(dp4903
g36
S'uniform'
p4904
sg38
F1
sg39
Nsg40
S'fan_avg'
p4905
sbsg42
Nsg43
g44
sg45
I00
sg46
S'same'
p4906
sg48
g134
sg50
(dp4907
sg52
S'conv2d_91'
p4908
sg54
Nsg55
g2
(g56
g4
NtRp4909
(dp4910
g59
I4
sg60
Nsg61
Nsg62
(dp4911
sg64
Nsg65
Nsbsg66
S'channels_last'
p4912
sg68
g69
sg70
Nsg71
(lp4913
sg73
(I3
I3
tp4914
sbag2
(g75
g4
NtRp4915
(dp4916
g7
(lp4917
sg9
I01
sg10
(lp4918
sg15
(lp4919
sg81
I3
sg18
(lp4920
sg83
g2
(g28
g4
NtRp4921
sg21
(dp4922
sg86
g2
(g87
g4
NtRp4923
sg23
(dp4924
sg25
(lp4925
sg91
Nsg17
Nsg92
F0.98999999999999999
sg93
Nsg94
g2
(g87
g4
NtRp4926
sg31
I01
sg96
F0.001
sg97
g2
(g28
g4
NtRp4927
sg38
I00
sg45
I00
sg50
(dp4928
sg100
I01
sg101
Nsg52
S'batch_normalization_91'
p4929
sg55
Nsg71
(lp4930
sg104
Nsbag2
(g105
g4
NtRp4931
(dp4932
g18
(lp4933
sg7
(lp4934
sg52
S'activation_91'
p4935
sg9
I01
sg43
g111
sg10
(lp4936
sg55
Nsg21
(dp4937
sg23
(dp4938
sg25
(lp4939
sg71
(lp4940
sg31
I01
sg45
I00
sg15
(lp4941
sg50
(dp4942
sg17
Nsbag2
(g3
g4
NtRp4943
(dp4944
g7
(lp4945
sg9
I00
sg10
(lp4946
sg12
I2
sg13
I384
sg14
I00
sg15
(lp4947
sg17
Nsg18
(lp4948
sg20
Nsg21
(dp4949
sg23
(dp4950
sg25
(lp4951
sg27
g2
(g28
g4
NtRp4952
sg30
Nsg31
I01
sg32
g2
(g33
g4
NtRp4953
(dp4954
g36
S'uniform'
p4955
sg38
F1
sg39
Nsg40
S'fan_avg'
p4956
sbsg42
Nsg43
g44
sg45
I00
sg46
S'same'
p4957
sg48
g134
sg50
(dp4958
sg52
S'conv2d_92'
p4959
sg54
Nsg55
g2
(g56
g4
NtRp4960
(dp4961
g59
I4
sg60
Nsg61
Nsg62
(dp4962
sg64
Nsg65
Nsbsg66
S'channels_last'
p4963
sg68
g69
sg70
Nsg71
(lp4964
sg73
(I1
I3
tp4965
sbag2
(g75
g4
NtRp4966
(dp4967
g7
(lp4968
sg9
I01
sg10
(lp4969
sg15
(lp4970
sg81
I3
sg18
(lp4971
sg83
g2
(g28
g4
NtRp4972
sg21
(dp4973
sg86
g2
(g87
g4
NtRp4974
sg23
(dp4975
sg25
(lp4976
sg91
Nsg17
Nsg92
F0.98999999999999999
sg93
Nsg94
g2
(g87
g4
NtRp4977
sg31
I01
sg96
F0.001
sg97
g2
(g28
g4
NtRp4978
sg38
I00
sg45
I00
sg50
(dp4979
sg100
I01
sg101
Nsg52
S'batch_normalization_92'
p4980
sg55
Nsg71
(lp4981
sg104
Nsbag2
(g105
g4
NtRp4982
(dp4983
g18
(lp4984
sg7
(lp4985
sg52
S'activation_92'
p4986
sg9
I01
sg43
g111
sg10
(lp4987
sg55
Nsg21
(dp4988
sg23
(dp4989
sg25
(lp4990
sg71
(lp4991
sg31
I01
sg45
I00
sg15
(lp4992
sg50
(dp4993
sg17
Nsbag2
(g3
g4
NtRp4994
(dp4995
g7
(lp4996
sg9
I00
sg10
(lp4997
sg12
I2
sg13
I384
sg14
I00
sg15
(lp4998
sg17
Nsg18
(lp4999
sg20
Nsg21
(dp5000
sg23
(dp5001
sg25
(lp5002
sg27
g2
(g28
g4
NtRp5003
sg30
Nsg31
I01
sg32
g2
(g33
g4
NtRp5004
(dp5005
g36
S'uniform'
p5006
sg38
F1
sg39
Nsg40
S'fan_avg'
p5007
sbsg42
Nsg43
g44
sg45
I00
sg46
S'same'
p5008
sg48
g134
sg50
(dp5009
sg52
S'conv2d_93'
p5010
sg54
Nsg55
g2
(g56
g4
NtRp5011
(dp5012
g59
I4
sg60
Nsg61
Nsg62
(dp5013
sg64
Nsg65
Nsbsg66
S'channels_last'
p5014
sg68
g69
sg70
Nsg71
(lp5015
sg73
(I3
I1
tp5016
sbag2
(g75
g4
NtRp5017
(dp5018
g7
(lp5019
sg9
I01
sg10
(lp5020
sg15
(lp5021
sg81
I3
sg18
(lp5022
sg83
g2
(g28
g4
NtRp5023
sg21
(dp5024
sg86
g2
(g87
g4
NtRp5025
sg23
(dp5026
sg25
(lp5027
sg91
Nsg17
Nsg92
F0.98999999999999999
sg93
Nsg94
g2
(g87
g4
NtRp5028
sg31
I01
sg96
F0.001
sg97
g2
(g28
g4
NtRp5029
sg38
I00
sg45
I00
sg50
(dp5030
sg100
I01
sg101
Nsg52
S'batch_normalization_93'
p5031
sg55
Nsg71
(lp5032
sg104
Nsbag2
(g105
g4
NtRp5033
(dp5034
g18
(lp5035
sg7
(lp5036
sg52
S'activation_93'
p5037
sg9
I01
sg43
g111
sg10
(lp5038
sg55
Nsg21
(dp5039
sg23
(dp5040
sg25
(lp5041
sg71
(lp5042
sg31
I01
sg45
I00
sg15
(lp5043
sg50
(dp5044
sg17
Nsbag2
(g670
g4
NtRp5045
(dp5046
g46
S'same'
p5047
sg18
(lp5048
sg7
(lp5049
sg52
S'average_pooling2d_9'
p5050
sg48
g4573
sg9
I00
sg10
(lp5051
sg55
g2
(g56
g4
NtRp5052
(dp5053
g59
I4
sg60
Nsg61
Nsg62
(dp5054
sg64
Nsg65
Nsbsg66
S'channels_last'
p5055
sg21
(dp5056
sg23
(dp5057
sg25
(lp5058
sg71
(lp5059
sg239
g4583
sg31
I01
sg45
I00
sg15
(lp5060
sg50
(dp5061
sg17
Nsbag2
(g3
g4
NtRp5062
(dp5063
g7
(lp5064
sg9
I00
sg10
(lp5065
sg12
I2
sg13
I192
sg14
I00
sg15
(lp5066
sg17
Nsg18
(lp5067
sg20
Nsg21
(dp5068
sg23
(dp5069
sg25
(lp5070
sg27
g2
(g28
g4
NtRp5071
sg30
Nsg31
I01
sg32
g2
(g33
g4
NtRp5072
(dp5073
g36
S'uniform'
p5074
sg38
F1
sg39
Nsg40
S'fan_avg'
p5075
sbsg42
Nsg43
g44
sg45
I00
sg46
S'same'
p5076
sg48
g134
sg50
(dp5077
sg52
S'conv2d_94'
p5078
sg54
Nsg55
g2
(g56
g4
NtRp5079
(dp5080
g59
I4
sg60
Nsg61
Nsg62
(dp5081
sg64
Nsg65
Nsbsg66
S'channels_last'
p5082
sg68
g69
sg70
Nsg71
(lp5083
sg73
(I1
I1
tp5084
sbag2
(g75
g4
NtRp5085
(dp5086
g7
(lp5087
sg9
I01
sg10
(lp5088
sg15
(lp5089
sg81
I3
sg18
(lp5090
sg83
g2
(g28
g4
NtRp5091
sg21
(dp5092
sg86
g2
(g87
g4
NtRp5093
sg23
(dp5094
sg25
(lp5095
sg91
Nsg17
Nsg92
F0.98999999999999999
sg93
Nsg94
g2
(g87
g4
NtRp5096
sg31
I01
sg96
F0.001
sg97
g2
(g28
g4
NtRp5097
sg38
I00
sg45
I00
sg50
(dp5098
sg100
I01
sg101
Nsg52
S'batch_normalization_94'
p5099
sg55
Nsg71
(lp5100
sg104
Nsbag2
(g105
g4
NtRp5101
(dp5102
g18
(lp5103
sg7
(lp5104
sg52
S'activation_94'
p5105
sg9
I01
sg43
g111
sg10
(lp5106
sg55
Nsg21
(dp5107
sg23
(dp5108
sg25
(lp5109
sg71
(lp5110
sg31
I01
sg45
I00
sg15
(lp5111
sg50
(dp5112
sg17
Nsbag2
(ckeras.layers.pooling
GlobalAveragePooling2D
p5113
g4
NtRp5114
(dp5115
g18
(lp5116
sg7
(lp5117
sg52
S'global_average_pooling2d_1'
p5118
sg9
I00
sg10
(lp5119
sg55
g2
(g56
g4
NtRp5120
(dp5121
g59
I4
sg60
Nsg61
Nsg62
(dp5122
sg64
Nsg65
Nsbsg66
S'channels_last'
p5123
sg21
(dp5124
sg23
(dp5125
sg25
(lp5126
sg71
(lp5127
sg31
I01
sg45
I00
sg15
(lp5128
sg50
(dp5129
sg17
Nsba.